Archive member included to satisfy reference by file (symbol)

/usr/lib/gcc-cross/powerpc-linux-gnu/5/libgcc.a(_lshrdi3.o)
                              drivers/ddr/fsl/built-in.o (__lshrdi3)
/usr/lib/gcc-cross/powerpc-linux-gnu/5/libgcc.a(_ashldi3.o)
                              arch/powerpc/cpu/built-in.o (__ashldi3)
/usr/lib/gcc-cross/powerpc-linux-gnu/5/libgcc.a(_ashrdi3.o)
                              drivers/mtd/nand/built-in.o (__ashrdi3)
/usr/lib/gcc-cross/powerpc-linux-gnu/5/libgcc.a(crtresxgpr.o)
                              arch/powerpc/cpu/mpc85xx/built-in.o (_restgpr_14_x)

Allocating common symbols
Common symbol       size              file

ext_fs              0x48              fs/built-in.o
console_buffer      0x101             common/built-in.o
flash_info          0x1444            drivers/mtd/built-in.o
bootp_ids           0x10              net/built-in.o
bootp_start         0x4               net/built-in.o
net_server_ip       0x4               net/built-in.o
net_null_ethaddr    0x6               net/built-in.o
net_ethaddr         0x6               net/built-in.o
part_offset         0x4               fs/built-in.o
usb_started         0x1               common/built-in.o
monitor_flash_len   0x4               common/built-in.o
save_addr           0x4               common/built-in.o
net_boot_file_size  0x4               net/built-in.o
___strtok           0x4               lib/built-in.o
net_ping_ip         0x4               net/built-in.o
ext4fs_indir1_size  0x4               fs/built-in.o
bootp_timeout       0x4               net/built-in.o
bootp_num_ids       0x4               net/built-in.o
net_rx_packet_len   0x4               net/built-in.o
ext4fs_indir2_block
                    0x4               fs/built-in.o
eth_current         0x4               net/built-in.o
ext4fs_indir3_block
                    0x4               fs/built-in.o
ext4fs_symlinknest  0x4               fs/built-in.o
arp_wait_timer_start
                    0x4               net/built-in.o
net_gateway         0x4               net/built-in.o
net_busy_flag       0x4               net/built-in.o
net_restart_wrap    0x4               net/built-in.o
net_boot_file_expected_size_in_blocks
                    0x4               net/built-in.o
mtd_table           0x80              drivers/mtd/built-in.o
cfi_flash_num_flash_banks
                    0x4               drivers/mtd/built-in.o
arp_wait_tx_packet_size
                    0x4               net/built-in.o
net_server_ethaddr  0x6               net/built-in.o
net_state           0x4               net/built-in.o
arp_wait_try        0x4               net/built-in.o
images              0x208             common/built-in.o
net_rx_packet       0x4               net/built-in.o
net_rx_packets      0x10              net/built-in.o
working_fdt         0x4               cmd/built-in.o
do_fat_read_at_block
                    0x10000           fs/built-in.o
ext4fs_indir3_size  0x4               fs/built-in.o
g_parent_inode      0x4               fs/built-in.o
net_netmask         0x4               net/built-in.o
bootp_try           0x4               net/built-in.o
ext4fs_indir2_size  0x4               fs/built-in.o
ext4fs_indir1_block
                    0x4               fs/built-in.o
save_size           0x4               common/built-in.o
arp_wait_packet_ethaddr
                    0x4               net/built-in.o
ext4fs_file         0x4               fs/built-in.o
net_arp_wait_packet_ip
                    0x4               net/built-in.o
get_dentfromdir_block
                    0x10000           fs/built-in.o
ext4fs_root         0x4               fs/built-in.o
use_defaults        0x1               cmd/built-in.o
net_tx_packet       0x4               net/built-in.o
net_dns_server      0x4               net/built-in.o
sata_dev_desc       0x110             drivers/built-in.o
get_contents_vfatname_block
                    0x10000           fs/built-in.o
net_boot_file_name  0x400             net/built-in.o
net_ip              0x4               net/built-in.o

Discarded input sections

 .data          0x0000000000000000        0x0 arch/powerpc/cpu/mpc85xx/start.o
 .bss           0x0000000000000000        0x0 arch/powerpc/cpu/mpc85xx/start.o
 .text          0x0000000000000000        0x0 arch/powerpc/cpu/mpc85xx/resetvec.o
 .data          0x0000000000000000        0x0 arch/powerpc/cpu/mpc85xx/resetvec.o
 .bss           0x0000000000000000        0x0 arch/powerpc/cpu/mpc85xx/resetvec.o
 .text          0x0000000000000000        0x0 arch/powerpc/cpu/built-in.o
 .text.fdt_fixup_phy_connection
                0x0000000000000000       0x68 arch/powerpc/cpu/built-in.o
 .text.upmconfig
                0x0000000000000000      0x190 arch/powerpc/cpu/built-in.o
 .text.find_law
                0x0000000000000000       0xf8 arch/powerpc/cpu/built-in.o
 .rodata.__func__.7468
                0x0000000000000000        0xa arch/powerpc/cpu/built-in.o
 .data          0x0000000000000000        0x0 arch/powerpc/cpu/built-in.o
 .bss           0x0000000000000000        0x0 arch/powerpc/cpu/built-in.o
 .text.fdt_del_diu
                0x0000000000000000       0x54 arch/powerpc/cpu/mpc85xx/built-in.o
 .text.__board_assert_mem_reset
                0x0000000000000000        0xc arch/powerpc/cpu/mpc85xx/built-in.o
 .text.__board_deassert_mem_reset
                0x0000000000000000        0xc arch/powerpc/cpu/mpc85xx/built-in.o
 .text.__board_need_mem_reset
                0x0000000000000000       0x18 arch/powerpc/cpu/mpc85xx/built-in.o
 .text.cpu_mmc_init
                0x0000000000000000       0x2c arch/powerpc/cpu/mpc85xx/built-in.o
 .text.__fsl_serdes__init
                0x0000000000000000        0x4 arch/powerpc/cpu/mpc85xx/built-in.o
 .text.clear_ddr_tlbs_phys
                0x0000000000000000       0xb8 arch/powerpc/cpu/mpc85xx/built-in.o
 .text.clear_ddr_tlbs
                0x0000000000000000       0x38 arch/powerpc/cpu/mpc85xx/built-in.o
 .text.PITException
                0x0000000000000000       0x38 arch/powerpc/cpu/mpc85xx/built-in.o
 .data          0x0000000000000000        0x0 arch/powerpc/cpu/mpc85xx/built-in.o
 .bss           0x0000000000000000        0x0 arch/powerpc/cpu/mpc85xx/built-in.o
 .text.ticks2usec
                0x0000000000000000       0x3c arch/powerpc/lib/built-in.o
 .data          0x0000000000000000        0x0 arch/powerpc/lib/built-in.o
 .bss           0x0000000000000000        0x0 arch/powerpc/lib/built-in.o
 .text          0x0000000000000000        0x0 board/freescale/p1_p2_rdb_pc/built-in.o
 .text.__board_assert_mem_reset
                0x0000000000000000        0x8 board/freescale/p1_p2_rdb_pc/built-in.o
 .text.__board_deassert_mem_reset
                0x0000000000000000        0x8 board/freescale/p1_p2_rdb_pc/built-in.o
 .text.__board_need_mem_reset
                0x0000000000000000       0x10 board/freescale/p1_p2_rdb_pc/built-in.o
 .text.board_cpld_init
                0x0000000000000000       0x54 board/freescale/p1_p2_rdb_pc/built-in.o
 .text.board_gpio_init
                0x0000000000000000      0x138 board/freescale/p1_p2_rdb_pc/built-in.o
 .text.fsl_ddr_get_dimm_params
                0x0000000000000000       0x98 board/freescale/p1_p2_rdb_pc/built-in.o
 .text.fsl_ddr_board_options
                0x0000000000000000       0xac board/freescale/p1_p2_rdb_pc/built-in.o
 .data          0x0000000000000000        0x0 board/freescale/p1_p2_rdb_pc/built-in.o
 .data.ddr_raw_timing
                0x0000000000000000       0xd0 board/freescale/p1_p2_rdb_pc/built-in.o
 .bss           0x0000000000000000        0x0 board/freescale/p1_p2_rdb_pc/built-in.o
 .text          0x0000000000000000        0x0 cmd/built-in.o
 .rodata.version_string
                0x0000000000000000       0x41 cmd/built-in.o
 .data          0x0000000000000000        0x0 cmd/built-in.o
 .bss           0x0000000000000000        0x0 cmd/built-in.o
 .text          0x0000000000000000        0x0 common/built-in.o
 .text.arch_setup_gd
                0x0000000000000000        0x8 common/built-in.o
 .text.board_init_f_alloc_reserve
                0x0000000000000000        0xc common/built-in.o
 .text.board_init_f_init_reserve
                0x0000000000000000       0x40 common/built-in.o
 .text.hash_progressive_lookup_algo
                0x0000000000000000       0x80 common/built-in.o
 .text.hash_parse_string
                0x0000000000000000       0x8c common/built-in.o
 .text.hash_block
                0x0000000000000000       0x90 common/built-in.o
 .text.unset_local_var
                0x0000000000000000       0xc8 common/built-in.o
 .text.arch_cpu_init
                0x0000000000000000        0x8 common/built-in.o
 .text.coloured_LED_init
                0x0000000000000000        0x4 common/built-in.o
 .text.red_led_on
                0x0000000000000000        0x4 common/built-in.o
 .text.red_led_off
                0x0000000000000000        0x4 common/built-in.o
 .text.green_led_on
                0x0000000000000000        0x4 common/built-in.o
 .text.green_led_off
                0x0000000000000000        0x4 common/built-in.o
 .text.yellow_led_on
                0x0000000000000000        0x4 common/built-in.o
 .text.yellow_led_off
                0x0000000000000000        0x4 common/built-in.o
 .text.blue_led_on
                0x0000000000000000        0x4 common/built-in.o
 .text.blue_led_off
                0x0000000000000000        0x4 common/built-in.o
 .text.board_add_ram_info
                0x0000000000000000        0x4 common/built-in.o
 .text.arch_reserve_stacks
                0x0000000000000000        0x8 common/built-in.o
 .text.cpu_secondary_init_r
                0x0000000000000000        0x4 common/built-in.o
 .text.fixup_cpu
                0x0000000000000000        0x8 common/built-in.o
 .text.checkboard
                0x0000000000000000        0x8 common/built-in.o
 .text.arch_preboot_os
                0x0000000000000000        0x4 common/built-in.o
 .text.do_fixup_by_path_u32
                0x0000000000000000       0x40 common/built-in.o
 .text.fdt_record_loadable
                0x0000000000000000      0x15c common/built-in.o
 .text.fdt_increase_size
                0x0000000000000000       0x38 common/built-in.o
 .text.fdt_del_node_and_alias
                0x0000000000000000       0x60 common/built-in.o
 .text.fdt_alloc_phandle
                0x0000000000000000       0x7c common/built-in.o
 .text.fdt_set_phandle
                0x0000000000000000       0x70 common/built-in.o
 .text.fdt_create_phandle
                0x0000000000000000       0x84 common/built-in.o
 .text.fdt_set_node_status
                0x0000000000000000       0xc4 common/built-in.o
 .text.fdt_set_status_by_alias
                0x0000000000000000       0x4c common/built-in.o
 .text.fdt_get_base_address
                0x0000000000000000       0x5c common/built-in.o
 .text.fdt_read_range
                0x0000000000000000      0x1b8 common/built-in.o
 .text.fdt_setup_simplefb_node
                0x0000000000000000      0x1dc common/built-in.o
 .text.fdt_fixup_display
                0x0000000000000000      0x108 common/built-in.o
 .text.mdio_free
                0x0000000000000000        0x4 common/built-in.o
 .text.mdio_register_seq
                0x0000000000000000       0x50 common/built-in.o
 .text.mdio_unregister
                0x0000000000000000       0x68 common/built-in.o
 .text.usb_detect_change
                0x0000000000000000       0x90 common/built-in.o
 .text.usb_submit_int_msg
                0x0000000000000000       0x2c common/built-in.o
 .text.usb_set_protocol
                0x0000000000000000       0x60 common/built-in.o
 .text.usb_set_idle
                0x0000000000000000       0x68 common/built-in.o
 .text.usb_get_report
                0x0000000000000000       0x6c common/built-in.o
 .text.usb_get_class_descriptor
                0x0000000000000000       0x6c common/built-in.o
 .text.board_usb_init
                0x0000000000000000        0x8 common/built-in.o
 .text.board_usb_cleanup
                0x0000000000000000        0x8 common/built-in.o
 .text.splash_screen_prepare
                0x0000000000000000        0x8 common/built-in.o
 .text.cli_simple_parse_line
                0x0000000000000000       0xb4 common/built-in.o
 .text.cli_simple_process_macros
                0x0000000000000000      0x228 common/built-in.o
 .text.cli_simple_run_command
                0x0000000000000000      0x170 common/built-in.o
 .text.cli_simple_loop
                0x0000000000000000       0x98 common/built-in.o
 .text.cli_simple_run_command_list
                0x0000000000000000       0xa0 common/built-in.o
 .text.crc16    0x0000000000000000       0x44 common/built-in.o
 .text.spd_check
                0x0000000000000000       0x90 common/built-in.o
 .text.ddr1_spd_check
                0x0000000000000000        0xc common/built-in.o
 .text.ddr2_spd_check
                0x0000000000000000        0xc common/built-in.o
 .text.ddr3_spd_check
                0x0000000000000000       0x8c common/built-in.o
 .text.ddr4_spd_check
                0x0000000000000000       0xb4 common/built-in.o
 .text.hwconfig_arg_f
                0x0000000000000000        0x4 common/built-in.o
 .text.hwconfig_arg_cmp_f
                0x0000000000000000       0x70 common/built-in.o
 .text.serial_printf
                0x0000000000000000       0x8c common/built-in.o
 .text.fprintf  0x0000000000000000       0x90 common/built-in.o
 .text.disable_ctrlc
                0x0000000000000000       0x3c common/built-in.o
 .text.console_announce_r
                0x0000000000000000       0x70 common/built-in.o
 .text.valloc   0x0000000000000000        0xc common/built-in.o
 .text.pvalloc  0x0000000000000000       0x10 common/built-in.o
 .text.cfree    0x0000000000000000        0x4 common/built-in.o
 .text.malloc_usable_size
                0x0000000000000000       0x44 common/built-in.o
 .text.mallopt  0x0000000000000000       0x7c common/built-in.o
 .text.genimg_get_short_name
                0x0000000000000000       0x40 common/built-in.o
 .text.genimg_get_cat_name
                0x0000000000000000       0x70 common/built-in.o
 .text.genimg_get_cat_short_name
                0x0000000000000000       0x70 common/built-in.o
 .text.genimg_get_cat_count
                0x0000000000000000       0x3c common/built-in.o
 .text.genimg_get_cat_desc
                0x0000000000000000       0x38 common/built-in.o
 .text.genimg_get_type_short_name
                0x0000000000000000       0x34 common/built-in.o
 .text.genimg_get_comp_short_name
                0x0000000000000000       0x34 common/built-in.o
 .text.genimg_get_os_short_name
                0x0000000000000000       0x34 common/built-in.o
 .text.genimg_get_arch_short_name
                0x0000000000000000       0x34 common/built-in.o
 .text.genimg_get_kernel_addr
                0x0000000000000000       0x40 common/built-in.o
 .text.ft_verify_fdt
                0x0000000000000000        0x8 common/built-in.o
 .text.fit_get_subimage_count
                0x0000000000000000       0x7c common/built-in.o
 .text.fit_image_get_data_offset
                0x0000000000000000       0x54 common/built-in.o
 .text.fit_image_get_data_position
                0x0000000000000000       0x54 common/built-in.o
 .text.fit_image_get_data_size
                0x0000000000000000       0x54 common/built-in.o
 .text.fit_set_timestamp
                0x0000000000000000       0x60 common/built-in.o
 .text.fit_conf_find_compat
                0x0000000000000000      0x1c4 common/built-in.o
 .text.get_ram_size
                0x0000000000000000      0x134 common/built-in.o
 .text.stdio_init
                0x0000000000000000       0x34 common/built-in.o
 .text.run_command_repeatable
                0x0000000000000000       0x38 common/built-in.o
 .text.cmd_process_error
                0x0000000000000000       0x4c common/built-in.o
 .rodata.__func__.8148
                0x0000000000000000       0x14 common/built-in.o
 .rodata.unknown_str.8024
                0x0000000000000000        0x9 common/built-in.o
 .data          0x0000000000000000        0x0 common/built-in.o
 .bss           0x0000000000000000        0x0 common/built-in.o
 .bss.lastcommand.7581
                0x0000000000000000      0x101 common/built-in.o
 .bss.msg.8025  0x0000000000000000       0x1e common/built-in.o
 .text          0x0000000000000000        0x0 disk/built-in.o
 .text.blk_get_dev
                0x0000000000000000       0x50 disk/built-in.o
 .text.part_get_info_by_name_type
                0x0000000000000000       0xd0 disk/built-in.o
 .text.part_get_info_by_name
                0x0000000000000000       0x30 disk/built-in.o
 .text.is_valid_dos_buf
                0x0000000000000000       0x28 disk/built-in.o
 .text.write_mbr_partition
                0x0000000000000000       0x84 disk/built-in.o
 .rodata.__func__.7599
                0x0000000000000000       0x14 disk/built-in.o
 .data          0x0000000000000000        0x0 disk/built-in.o
 .bss           0x0000000000000000        0x0 disk/built-in.o
 .text          0x0000000000000000        0x0 drivers/built-in.o
 .text.ata_dev_classify
                0x0000000000000000       0x74 drivers/built-in.o
 .text.ata_dump_id
                0x0000000000000000      0x114 drivers/built-in.o
 .text.sata_reset
                0x0000000000000000       0x40 drivers/built-in.o
 .text.sata_dm_port_status
                0x0000000000000000       0x40 drivers/built-in.o
 .text.sata_scan
                0x0000000000000000       0x40 drivers/built-in.o
 .text.sata_get_dev
                0x0000000000000000       0x48 drivers/built-in.o
 .text.mmc_set_blocklen
                0x0000000000000000       0xa8 drivers/built-in.o
 .text.mmc_bread
                0x0000000000000000      0x19c drivers/built-in.o
 .text.cpu_mmc_init
                0x0000000000000000        0x8 drivers/built-in.o
 .text.board_mmc_init
                0x0000000000000000        0x8 drivers/built-in.o
 .text.mmc_set_preinit
                0x0000000000000000        0x8 drivers/built-in.o
 .text.mmc_initialize
                0x0000000000000000       0x70 drivers/built-in.o
 .text.mmc_berase
                0x0000000000000000      0x1e0 drivers/built-in.o
 .text.mmc_bwrite
                0x0000000000000000      0x1dc drivers/built-in.o
 .text.mmc_get_next_devnum
                0x0000000000000000       0x3c drivers/built-in.o
 .text.mmc_do_preinit
                0x0000000000000000       0x58 drivers/built-in.o
 .text.mmc_list_init
                0x0000000000000000       0x44 drivers/built-in.o
 .text.mmc_list_add
                0x0000000000000000       0x48 drivers/built-in.o
 .text.mmc_create
                0x0000000000000000      0x108 drivers/built-in.o
 .text.mmc_destroy
                0x0000000000000000        0x4 drivers/built-in.o
 .text.fsl_esdhc_initialize
                0x0000000000000000      0x264 drivers/built-in.o
 .text.fsl_esdhc_mmc_init
                0x0000000000000000       0x60 drivers/built-in.o
 .text.rtc_mktime
                0x0000000000000000       0x88 drivers/built-in.o
 .text._input_send_keycodes
                0x0000000000000000      0x4a8 drivers/built-in.o
 .text.input_tstc
                0x0000000000000000       0x60 drivers/built-in.o
 .text.input_getc
                0x0000000000000000       0x78 drivers/built-in.o
 .text.input_send_keycodes
                0x0000000000000000        0x8 drivers/built-in.o
 .text.input_add_keycode
                0x0000000000000000       0xac drivers/built-in.o
 .text.input_add_table
                0x0000000000000000       0x3c drivers/built-in.o
 .text.input_set_delays
                0x0000000000000000        0xc drivers/built-in.o
 .text.input_allow_repeats
                0x0000000000000000        0x8 drivers/built-in.o
 .text.input_leds_changed
                0x0000000000000000       0x1c drivers/built-in.o
 .text.input_add_tables
                0x0000000000000000       0x78 drivers/built-in.o
 .text.input_init
                0x0000000000000000       0x44 drivers/built-in.o
 .text.input_stdio_register
                0x0000000000000000       0x6c drivers/built-in.o
 .rodata.CSWTCH.32
                0x0000000000000000        0xd drivers/built-in.o
 .data          0x0000000000000000        0x0 drivers/built-in.o
 .bss           0x0000000000000000        0x0 drivers/built-in.o
 .bss.initialized.9580
                0x0000000000000000        0x4 drivers/built-in.o
 .text          0x0000000000000000        0x0 drivers/ddr/fsl/built-in.o
 .text.__board_deassert_mem_reset
                0x0000000000000000       0x1c drivers/ddr/fsl/built-in.o
 .text.__board_need_mem_reset
                0x0000000000000000       0x38 drivers/ddr/fsl/built-in.o
 .text.__board_assert_mem_reset
                0x0000000000000000       0x1c drivers/ddr/fsl/built-in.o
 .text.__get_spd
                0x0000000000000000       0x7c drivers/ddr/fsl/built-in.o
 .text.update_spd_address
                0x0000000000000000        0x4 drivers/ddr/fsl/built-in.o
 .text.fsl_ddr_get_spd
                0x0000000000000000       0x98 drivers/ddr/fsl/built-in.o
 .text.step_to_string
                0x0000000000000000       0x70 drivers/ddr/fsl/built-in.o
 .text.__step_assign_addresses
                0x0000000000000000      0x300 drivers/ddr/fsl/built-in.o
 .text.fsl_ddr_compute
                0x0000000000000000      0x37c drivers/ddr/fsl/built-in.o
 .text.__fsl_ddr_sdram
                0x0000000000000000      0x27c drivers/ddr/fsl/built-in.o
 .text.fsl_ddr_sdram
                0x0000000000000000       0x88 drivers/ddr/fsl/built-in.o
 .text.fsl_ddr_sdram_size
                0x0000000000000000       0x7c drivers/ddr/fsl/built-in.o
 .text.get_memory_clk_period_ps
                0x0000000000000000       0x68 drivers/ddr/fsl/built-in.o
 .text.picos_to_mclk
                0x0000000000000000       0xe4 drivers/ddr/fsl/built-in.o
 .text.mclk_to_picos
                0x0000000000000000       0x34 drivers/ddr/fsl/built-in.o
 .text.__fsl_ddr_set_lawbar
                0x0000000000000000       0x70 drivers/ddr/fsl/built-in.o
 .text.fsl_ddr_set_intl3r
                0x0000000000000000        0x4 drivers/ddr/fsl/built-in.o
 .text.remove_unused_controllers
                0x0000000000000000        0x4 drivers/ddr/fsl/built-in.o
 .text.check_fsl_memctl_config_regs
                0x0000000000000000       0x50 drivers/ddr/fsl/built-in.o
 .text.compute_fsl_memctl_config_regs
                0x0000000000000000      0xdb8 drivers/ddr/fsl/built-in.o
 .text.populate_memctl_options
                0x0000000000000000      0x324 drivers/ddr/fsl/built-in.o
 .text.check_interleaving_options
                0x0000000000000000      0x138 drivers/ddr/fsl/built-in.o
 .text.fsl_use_spd
                0x0000000000000000       0xac drivers/ddr/fsl/built-in.o
 .text.compute_lowest_common_dimm_parameters
                0x0000000000000000      0x4c0 drivers/ddr/fsl/built-in.o
 .text.ddr_compute_dimm_parameters
                0x0000000000000000      0x434 drivers/ddr/fsl/built-in.o
 .rodata        0x0000000000000000        0xc drivers/ddr/fsl/built-in.o
 .rodata.__FUNCTION__.8471
                0x0000000000000000       0x10 drivers/ddr/fsl/built-in.o
 .rodata.__func__.8480
                0x0000000000000000        0xf drivers/ddr/fsl/built-in.o
 .rodata.__func__.8325
                0x0000000000000000       0x15 drivers/ddr/fsl/built-in.o
 .rodata.wr_table.8374
                0x0000000000000000        0xc drivers/ddr/fsl/built-in.o
 .rodata.wrrec_table.8245
                0x0000000000000000       0x10 drivers/ddr/fsl/built-in.o
 .rodata.single_Q
                0x0000000000000000       0x40 drivers/ddr/fsl/built-in.o
 .rodata.single_S
                0x0000000000000000       0x40 drivers/ddr/fsl/built-in.o
 .rodata.single_D
                0x0000000000000000       0x40 drivers/ddr/fsl/built-in.o
 .rodata.odt_unknown
                0x0000000000000000       0x40 drivers/ddr/fsl/built-in.o
 .data          0x0000000000000000        0x0 drivers/ddr/fsl/built-in.o
 .sdata.spd_i2c_addr
                0x0000000000000000        0x1 drivers/ddr/fsl/built-in.o
 .bss           0x0000000000000000        0x0 drivers/ddr/fsl/built-in.o
 .text          0x0000000000000000        0x0 drivers/i2c/built-in.o
 .text.i2c_init_board
                0x0000000000000000        0x4 drivers/i2c/built-in.o
 .text.i2c_early_init_f
                0x0000000000000000        0x4 drivers/i2c/built-in.o
 .data          0x0000000000000000        0x0 drivers/i2c/built-in.o
 .bss           0x0000000000000000        0x0 drivers/i2c/built-in.o
 .text          0x0000000000000000        0x0 drivers/mtd/built-in.o
 .text.mtd_ooblayout_ecc
                0x0000000000000000       0x88 drivers/mtd/built-in.o
 .text.mtd_ooblayout_free
                0x0000000000000000       0x88 drivers/mtd/built-in.o
 .text.mtd_ooblayout_find_region
                0x0000000000000000       0xac drivers/mtd/built-in.o
 .text.mtd_ooblayout_get_bytes
                0x0000000000000000       0xbc drivers/mtd/built-in.o
 .text.mtd_ooblayout_set_bytes
                0x0000000000000000       0xbc drivers/mtd/built-in.o
 .text.idr_remove
                0x0000000000000000       0x1c drivers/mtd/built-in.o
 .text.del_mtd_device
                0x0000000000000000       0x7c drivers/mtd/built-in.o
 .text.get_mtd_device
                0x0000000000000000       0xb4 drivers/mtd/built-in.o
 .text.mtd_get_unmapped_area
                0x0000000000000000       0x7c drivers/mtd/built-in.o
 .text.mtd_panic_write
                0x0000000000000000       0xb0 drivers/mtd/built-in.o
 .text.mtd_ooblayout_find_eccregion
                0x0000000000000000       0x30 drivers/mtd/built-in.o
 .text.mtd_ooblayout_get_eccbytes
                0x0000000000000000       0x30 drivers/mtd/built-in.o
 .text.mtd_ooblayout_set_eccbytes
                0x0000000000000000       0x30 drivers/mtd/built-in.o
 .text.mtd_ooblayout_get_databytes
                0x0000000000000000       0x30 drivers/mtd/built-in.o
 .text.mtd_ooblayout_set_databytes
                0x0000000000000000       0x30 drivers/mtd/built-in.o
 .text.mtd_ooblayout_count_freebytes
                0x0000000000000000       0x70 drivers/mtd/built-in.o
 .text.mtd_ooblayout_count_eccbytes
                0x0000000000000000       0x70 drivers/mtd/built-in.o
 .text.mtd_get_fact_prot_info
                0x0000000000000000       0x48 drivers/mtd/built-in.o
 .text.mtd_read_fact_prot_reg
                0x0000000000000000       0x50 drivers/mtd/built-in.o
 .text.mtd_get_user_prot_info
                0x0000000000000000       0x48 drivers/mtd/built-in.o
 .text.mtd_read_user_prot_reg
                0x0000000000000000       0x50 drivers/mtd/built-in.o
 .text.mtd_write_user_prot_reg
                0x0000000000000000       0x70 drivers/mtd/built-in.o
 .text.mtd_lock_user_prot_reg
                0x0000000000000000       0x48 drivers/mtd/built-in.o
 .text.mtd_lock
                0x0000000000000000       0x98 drivers/mtd/built-in.o
 .text.mtd_is_locked
                0x0000000000000000       0x98 drivers/mtd/built-in.o
 .text.mtd_block_isreserved
                0x0000000000000000       0x6c drivers/mtd/built-in.o
 .text.part_get_unmapped_area
                0x0000000000000000       0x38 drivers/mtd/built-in.o
 .text.part_read_user_prot_reg
                0x0000000000000000       0x2c drivers/mtd/built-in.o
 .text.part_get_user_prot_info
                0x0000000000000000       0x2c drivers/mtd/built-in.o
 .text.part_read_fact_prot_reg
                0x0000000000000000       0x2c drivers/mtd/built-in.o
 .text.part_get_fact_prot_info
                0x0000000000000000       0x2c drivers/mtd/built-in.o
 .text.part_write
                0x0000000000000000       0x44 drivers/mtd/built-in.o
 .text.part_panic_write
                0x0000000000000000       0x44 drivers/mtd/built-in.o
 .text.part_write_oob
                0x0000000000000000       0x90 drivers/mtd/built-in.o
 .text.part_write_user_prot_reg
                0x0000000000000000       0x2c drivers/mtd/built-in.o
 .text.part_lock_user_prot_reg
                0x0000000000000000       0x2c drivers/mtd/built-in.o
 .text.part_lock
                0x0000000000000000       0x44 drivers/mtd/built-in.o
 .text.part_unlock
                0x0000000000000000       0x44 drivers/mtd/built-in.o
 .text.part_is_locked
                0x0000000000000000       0x44 drivers/mtd/built-in.o
 .text.part_sync
                0x0000000000000000       0x2c drivers/mtd/built-in.o
 .text.part_block_isreserved
                0x0000000000000000       0x40 drivers/mtd/built-in.o
 .text.part_block_isbad
                0x0000000000000000       0x40 drivers/mtd/built-in.o
 .text.part_block_markbad
                0x0000000000000000       0x54 drivers/mtd/built-in.o
 .text.part_read
                0x0000000000000000       0x80 drivers/mtd/built-in.o
 .text.part_read_oob
                0x0000000000000000      0x1c8 drivers/mtd/built-in.o
 .text.kstrdup  0x0000000000000000       0x6c drivers/mtd/built-in.o
 .text.del_mtd_partitions
                0x0000000000000000       0xb8 drivers/mtd/built-in.o
 .text.add_mtd_partitions
                0x0000000000000000      0x7d0 drivers/mtd/built-in.o
 .text.mtd_is_partition
                0x0000000000000000       0x60 drivers/mtd/built-in.o
 .text.mtd_get_device_size
                0x0000000000000000       0x50 drivers/mtd/built-in.o
 .rodata.__func__.9516
                0x0000000000000000       0x13 drivers/mtd/built-in.o
 .data          0x0000000000000000        0x0 drivers/mtd/built-in.o
 .bss           0x0000000000000000        0x0 drivers/mtd/built-in.o
 .sbss          0x0000000000000000        0x4 drivers/mtd/built-in.o
 .text          0x0000000000000000        0x0 drivers/mtd/nand/built-in.o
 .text.nand_mtd_to_devnum
                0x0000000000000000       0x58 drivers/mtd/nand/built-in.o
 .text.nand_register
                0x0000000000000000       0xb4 drivers/mtd/nand/built-in.o
 .text.nand_size
                0x0000000000000000       0x34 drivers/mtd/nand/built-in.o
 .text.nand_init
                0x0000000000000000       0x44 drivers/mtd/nand/built-in.o
 .text.verify_bbt_descr
                0x0000000000000000      0x1dc drivers/mtd/nand/built-in.o
 .text.create_bbt
                0x0000000000000000      0x210 drivers/mtd/nand/built-in.o
 .text.scan_read
                0x0000000000000000      0x10c drivers/mtd/nand/built-in.o
 .text.read_bbt
                0x0000000000000000      0x1ec drivers/mtd/nand/built-in.o
 .text.write_bbt
                0x0000000000000000      0x610 drivers/mtd/nand/built-in.o
 .text.nand_update_bbt
                0x0000000000000000      0x144 drivers/mtd/nand/built-in.o
 .text.mark_bbt_region
                0x0000000000000000      0x19c drivers/mtd/nand/built-in.o
 .text.search_bbt
                0x0000000000000000      0x18c drivers/mtd/nand/built-in.o
 .text.read_abs_bbt
                0x0000000000000000      0x120 drivers/mtd/nand/built-in.o
 .text.nand_default_bbt
                0x0000000000000000      0x5b4 drivers/mtd/nand/built-in.o
 .text.nand_isreserved_bbt
                0x0000000000000000       0x60 drivers/mtd/nand/built-in.o
 .text.nand_isbad_bbt
                0x0000000000000000       0x74 drivers/mtd/nand/built-in.o
 .text.nand_markbad_bbt
                0x0000000000000000       0x94 drivers/mtd/nand/built-in.o
 .text.nand_calculate_ecc
                0x0000000000000000      0x110 drivers/mtd/nand/built-in.o
 .text.nand_correct_data
                0x0000000000000000      0x12c drivers/mtd/nand/built-in.o
 .text.nand_release_device
                0x0000000000000000       0x2c drivers/mtd/nand/built-in.o
 .text.nand_read_byte
                0x0000000000000000       0x1c drivers/mtd/nand/built-in.o
 .text.nand_read_byte16
                0x0000000000000000       0x24 drivers/mtd/nand/built-in.o
 .text.nand_read_word
                0x0000000000000000       0x1c drivers/mtd/nand/built-in.o
 .text.nand_write_byte
                0x0000000000000000       0x38 drivers/mtd/nand/built-in.o
 .text.nand_write_byte16
                0x0000000000000000       0x38 drivers/mtd/nand/built-in.o
 .text.nand_write_buf
                0x0000000000000000       0x3c drivers/mtd/nand/built-in.o
 .text.nand_read_buf
                0x0000000000000000       0x44 drivers/mtd/nand/built-in.o
 .text.nand_write_buf16
                0x0000000000000000       0x3c drivers/mtd/nand/built-in.o
 .text.nand_read_buf16
                0x0000000000000000       0x44 drivers/mtd/nand/built-in.o
 .text.nand_setup_data_interface
                0x0000000000000000       0xa8 drivers/mtd/nand/built-in.o
 .text.nand_read_page_raw_syndrome
                0x0000000000000000       0xf8 drivers/mtd/nand/built-in.o
 .text.nand_read_page_swecc
                0x0000000000000000      0x124 drivers/mtd/nand/built-in.o
 .text.nand_read_oob_std
                0x0000000000000000       0x54 drivers/mtd/nand/built-in.o
 .text.nand_read_oob_syndrome
                0x0000000000000000      0x118 drivers/mtd/nand/built-in.o
 .text.nand_write_oob_std
                0x0000000000000000       0x94 drivers/mtd/nand/built-in.o
 .text.nand_write_oob_syndrome
                0x0000000000000000      0x1a8 drivers/mtd/nand/built-in.o
 .text.nand_write_page_raw_syndrome
                0x0000000000000000       0xf8 drivers/mtd/nand/built-in.o
 .text.nand_write_page_swecc
                0x0000000000000000       0xc0 drivers/mtd/nand/built-in.o
 .text.nand_write_page_hwecc
                0x0000000000000000       0xdc drivers/mtd/nand/built-in.o
 .text.nand_write_page_syndrome
                0x0000000000000000      0x124 drivers/mtd/nand/built-in.o
 .text.single_erase
                0x0000000000000000       0x64 drivers/mtd/nand/built-in.o
 .text.nand_sync
                0x0000000000000000        0xc drivers/mtd/nand/built-in.o
 .text.nand_onfi_set_features
                0x0000000000000000       0x7c drivers/mtd/nand/built-in.o
 .text.nand_onfi_get_features
                0x0000000000000000       0x60 drivers/mtd/nand/built-in.o
 .text.nand_set_defaults
                0x0000000000000000      0x1cc drivers/mtd/nand/built-in.o
 .text.nand_write_subpage_hwecc
                0x0000000000000000      0x174 drivers/mtd/nand/built-in.o
 .text.nand_check_erased_buf
                0x0000000000000000      0x1a8 drivers/mtd/nand/built-in.o
 .text.nand_block_bad
                0x0000000000000000      0x190 drivers/mtd/nand/built-in.o
 .text.nand_write_page
                0x0000000000000000      0x158 drivers/mtd/nand/built-in.o
 .text.nand_wait
                0x0000000000000000       0xe4 drivers/mtd/nand/built-in.o
 .text.unlikely.sanitize_string
                0x0000000000000000       0x68 drivers/mtd/nand/built-in.o
 .text.nand_block_isreserved
                0x0000000000000000       0x40 drivers/mtd/nand/built-in.o
 .text.nand_check_wp
                0x0000000000000000       0x60 drivers/mtd/nand/built-in.o
 .text.nand_read_page_raw
                0x0000000000000000       0x5c drivers/mtd/nand/built-in.o
 .text.nand_write_page_raw
                0x0000000000000000       0x5c drivers/mtd/nand/built-in.o
 .text.nand_block_checkbad
                0x0000000000000000       0x8c drivers/mtd/nand/built-in.o
 .text.nand_block_isbad
                0x0000000000000000       0x94 drivers/mtd/nand/built-in.o
 .text.nand_fill_oob
                0x0000000000000000      0x134 drivers/mtd/nand/built-in.o
 .text.nand_do_write_ops
                0x0000000000000000      0x32c drivers/mtd/nand/built-in.o
 .text.nand_write
                0x0000000000000000       0x98 drivers/mtd/nand/built-in.o
 .text.nand_select_chip
                0x0000000000000000       0x64 drivers/mtd/nand/built-in.o
 .text.nand_transfer_oob
                0x0000000000000000      0x120 drivers/mtd/nand/built-in.o
 .text.panic_nand_write
                0x0000000000000000       0xe4 drivers/mtd/nand/built-in.o
 .text.nand_wait_status_ready.constprop.16
                0x0000000000000000       0x60 drivers/mtd/nand/built-in.o
 .text.nand_wait_ready
                0x0000000000000000       0x78 drivers/mtd/nand/built-in.o
 .text.nand_command
                0x0000000000000000      0x240 drivers/mtd/nand/built-in.o
 .text.nand_command_lp
                0x0000000000000000      0x2b4 drivers/mtd/nand/built-in.o
 .text.nand_do_read_ops
                0x0000000000000000      0x470 drivers/mtd/nand/built-in.o
 .text.nand_read_oob
                0x0000000000000000      0x2d0 drivers/mtd/nand/built-in.o
 .text.nand_read
                0x0000000000000000       0x98 drivers/mtd/nand/built-in.o
 .text.nand_reset
                0x0000000000000000       0xec drivers/mtd/nand/built-in.o
 .text.nand_do_write_oob
                0x0000000000000000      0x1e4 drivers/mtd/nand/built-in.o
 .text.nand_default_block_markbad
                0x0000000000000000      0x108 drivers/mtd/nand/built-in.o
 .text.nand_write_oob
                0x0000000000000000       0xa0 drivers/mtd/nand/built-in.o
 .text.nand_check_erased_ecc_chunk
                0x0000000000000000       0xf8 drivers/mtd/nand/built-in.o
 .text.nand_read_page_syndrome
                0x0000000000000000      0x1cc drivers/mtd/nand/built-in.o
 .text.nand_read_subpage
                0x0000000000000000      0x2d0 drivers/mtd/nand/built-in.o
 .text.nand_read_page_hwecc
                0x0000000000000000      0x1a0 drivers/mtd/nand/built-in.o
 .text.nand_read_page_hwecc_oob_first
                0x0000000000000000      0x1b4 drivers/mtd/nand/built-in.o
 .text.nand_erase_nand
                0x0000000000000000      0x270 drivers/mtd/nand/built-in.o
 .text.nand_block_markbad
                0x0000000000000000      0x11c drivers/mtd/nand/built-in.o
 .text.nand_erase
                0x0000000000000000       0x30 drivers/mtd/nand/built-in.o
 .text.nand_scan_ident
                0x0000000000000000      0xbb0 drivers/mtd/nand/built-in.o
 .text.nand_check_ecc_caps
                0x0000000000000000      0x180 drivers/mtd/nand/built-in.o
 .text.nand_match_ecc_req
                0x0000000000000000      0x1cc drivers/mtd/nand/built-in.o
 .text.nand_maximize_ecc
                0x0000000000000000      0x19c drivers/mtd/nand/built-in.o
 .text.nand_scan_tail
                0x0000000000000000      0x684 drivers/mtd/nand/built-in.o
 .text.nand_scan
                0x0000000000000000       0x44 drivers/mtd/nand/built-in.o
 .text.onfi_async_timing_mode_to_sdr_timings
                0x0000000000000000       0x4c drivers/mtd/nand/built-in.o
 .text.onfi_init_data_interface
                0x0000000000000000       0xfc drivers/mtd/nand/built-in.o
 .text.nand_get_default_data_interface
                0x0000000000000000       0x30 drivers/mtd/nand/built-in.o
 .text.set_addr
                0x0000000000000000       0xbc drivers/mtd/nand/built-in.o
 .text.fsl_elbc_select_chip
                0x0000000000000000        0x4 drivers/mtd/nand/built-in.o
 .text.fsl_elbc_read_byte
                0x0000000000000000       0x74 drivers/mtd/nand/built-in.o
 .text.fsl_elbc_run_command
                0x0000000000000000      0x104 drivers/mtd/nand/built-in.o
 .text.fsl_elbc_wait
                0x0000000000000000       0xb8 drivers/mtd/nand/built-in.o
 .text.fsl_elbc_read_buf
                0x0000000000000000       0x8c drivers/mtd/nand/built-in.o
 .text.fsl_elbc_read_page
                0x0000000000000000       0x60 drivers/mtd/nand/built-in.o
 .text.fsl_elbc_write_buf
                0x0000000000000000       0xc4 drivers/mtd/nand/built-in.o
 .text.fsl_elbc_write_subpage
                0x0000000000000000       0x40 drivers/mtd/nand/built-in.o
 .text.fsl_elbc_write_page
                0x0000000000000000       0x40 drivers/mtd/nand/built-in.o
 .text.fsl_elbc_cmdfunc
                0x0000000000000000      0x3a0 drivers/mtd/nand/built-in.o
 .text.board_nand_init
                0x0000000000000000      0x380 drivers/mtd/nand/built-in.o
 .rodata.__func__.9050
                0x0000000000000000        0xb drivers/mtd/nand/built-in.o
 .rodata.__func__.9193
                0x0000000000000000       0x11 drivers/mtd/nand/built-in.o
 .rodata.nand_ecc_precalc_table
                0x0000000000000000      0x100 drivers/mtd/nand/built-in.o
 .rodata.nand_scan_ident
                0x0000000000000000       0x30 drivers/mtd/nand/built-in.o
 .rodata.nand_scan_tail
                0x0000000000000000       0x18 drivers/mtd/nand/built-in.o
 .rodata.__func__.9202
                0x0000000000000000        0xa drivers/mtd/nand/built-in.o
 .rodata.__func__.10157
                0x0000000000000000       0x12 drivers/mtd/nand/built-in.o
 .rodata.__func__.10052
                0x0000000000000000       0x14 drivers/mtd/nand/built-in.o
 .rodata.__func__.8990
                0x0000000000000000       0x11 drivers/mtd/nand/built-in.o
 .rodata.__func__.10190
                0x0000000000000000        0xf drivers/mtd/nand/built-in.o
 .rodata.__func__.10124
                0x0000000000000000       0x13 drivers/mtd/nand/built-in.o
 .rodata.__func__.9459
                0x0000000000000000       0x12 drivers/mtd/nand/built-in.o
 .rodata.__func__.9757
                0x0000000000000000        0xe drivers/mtd/nand/built-in.o
 .rodata.__func__.10087
                0x0000000000000000       0x14 drivers/mtd/nand/built-in.o
 .rodata.onfi_sdr_timings
                0x0000000000000000      0x450 drivers/mtd/nand/built-in.o
 .data          0x0000000000000000        0x0 drivers/mtd/nand/built-in.o
 .data.nand_oob_8
                0x0000000000000000      0xba8 drivers/mtd/nand/built-in.o
 .data.nand_oob_128
                0x0000000000000000      0xba8 drivers/mtd/nand/built-in.o
 .data.nand_oob_16
                0x0000000000000000      0xba8 drivers/mtd/nand/built-in.o
 .data.nand_oob_64
                0x0000000000000000      0xba8 drivers/mtd/nand/built-in.o
 .data.fsl_elbc_oob_sp_eccm0
                0x0000000000000000      0xba8 drivers/mtd/nand/built-in.o
 .data.fsl_elbc_oob_lp_eccm1
                0x0000000000000000      0xba8 drivers/mtd/nand/built-in.o
 .bss           0x0000000000000000        0x0 drivers/mtd/nand/built-in.o
 .bss.initialized.9031
                0x0000000000000000        0x4 drivers/mtd/nand/built-in.o
 .bss.total_nand_size
                0x0000000000000000        0x4 drivers/mtd/nand/built-in.o
 .bss.dev_name  0x0000000000000000        0x8 drivers/mtd/nand/built-in.o
 .bss.__warned.10161
                0x0000000000000000        0x1 drivers/mtd/nand/built-in.o
 .bss.__warned.10091
                0x0000000000000000        0x1 drivers/mtd/nand/built-in.o
 .bss.__warned.10127
                0x0000000000000000        0x1 drivers/mtd/nand/built-in.o
 .bss.elbc_ctrl
                0x0000000000000000        0x4 drivers/mtd/nand/built-in.o
 .text          0x0000000000000000        0x0 drivers/mtd/spi/built-in.o
 .data          0x0000000000000000        0x0 drivers/mtd/spi/built-in.o
 .bss           0x0000000000000000        0x0 drivers/mtd/spi/built-in.o
 .text          0x0000000000000000        0x0 drivers/net/built-in.o
 .text.e1000_check_mng_mode
                0x0000000000000000       0x40 drivers/net/built-in.o
 .text.e1000_find_card
                0x0000000000000000       0x64 drivers/net/built-in.o
 .text.vsc7385_upload_firmware
                0x0000000000000000      0x170 drivers/net/built-in.o
 .data          0x0000000000000000        0x0 drivers/net/built-in.o
 .bss           0x0000000000000000        0x0 drivers/net/built-in.o
 .text          0x0000000000000000        0x0 drivers/net/phy/built-in.o
 .text.phy_set_supported
                0x0000000000000000       0x58 drivers/net/phy/built-in.o
 .text.miiphy_reset
                0x0000000000000000       0x44 drivers/net/phy/built-in.o
 .text.phy_get_interface_by_name
                0x0000000000000000       0x64 drivers/net/phy/built-in.o
 .data          0x0000000000000000        0x0 drivers/net/phy/built-in.o
 .bss           0x0000000000000000        0x0 drivers/net/phy/built-in.o
 .text          0x0000000000000000        0x0 drivers/pci/built-in.o
 .text.pci_hose_read_config_byte_via_dword
                0x0000000000000000       0x68 drivers/pci/built-in.o
 .text.pci_hose_read_config_word_via_dword
                0x0000000000000000       0x68 drivers/pci/built-in.o
 .text.pci_hose_write_config_byte_via_dword
                0x0000000000000000       0x8c drivers/pci/built-in.o
 .text.pci_hose_write_config_word_via_dword
                0x0000000000000000       0x90 drivers/pci/built-in.o
 .text.pci_last_busno
                0x0000000000000000       0x58 drivers/pci/built-in.o
 .text.pci_hose_config_device
                0x0000000000000000      0x218 drivers/pci/built-in.o
 .text.pci_find_config
                0x0000000000000000       0x9c drivers/pci/built-in.o
 .text.pci_cfgfunc_config_device
                0x0000000000000000       0x3c drivers/pci/built-in.o
 .text.pci_cfgfunc_do_nothing
                0x0000000000000000        0x4 drivers/pci/built-in.o
 .text.pci_hose_scan
                0x0000000000000000       0x5c drivers/pci/built-in.o
 .text.pci_find_next_ext_capability
                0x0000000000000000       0xd8 drivers/pci/built-in.o
 .text.pci_hose_find_ext_capability
                0x0000000000000000       0x34 drivers/pci/built-in.o
 .text.pci_write_bar32
                0x0000000000000000       0x34 drivers/pci/built-in.o
 .text.pci_read_bar32
                0x0000000000000000       0x50 drivers/pci/built-in.o
 .text.pci_find_device
                0x0000000000000000       0x5c drivers/pci/built-in.o
 .text.pci_find_class
                0x0000000000000000       0xe0 drivers/pci/built-in.o
 .data          0x0000000000000000        0x0 drivers/pci/built-in.o
 .bss           0x0000000000000000        0x0 drivers/pci/built-in.o
 .text          0x0000000000000000        0x0 drivers/serial/built-in.o
 .text.serial_reinit_all
                0x0000000000000000       0x4c drivers/serial/built-in.o
 .text.default_serial_puts
                0x0000000000000000       0x44 drivers/serial/built-in.o
 .data          0x0000000000000000        0x0 drivers/serial/built-in.o
 .bss           0x0000000000000000        0x0 drivers/serial/built-in.o
 .text          0x0000000000000000        0x0 drivers/spi/built-in.o
 .text.spi_set_wordlen
                0x0000000000000000       0x4c drivers/spi/built-in.o
 .rodata.str1.1
                0x0000000000000000       0x19 drivers/spi/built-in.o
 .data          0x0000000000000000        0x0 drivers/spi/built-in.o
 .bss           0x0000000000000000        0x0 drivers/spi/built-in.o
 .text          0x0000000000000000        0x0 drivers/usb/common/built-in.o
 .text.has_erratum_a010151
                0x0000000000000000        0xc drivers/usb/common/built-in.o
 .data          0x0000000000000000        0x0 drivers/usb/common/built-in.o
 .bss           0x0000000000000000        0x0 drivers/usb/common/built-in.o
 .text          0x0000000000000000        0x0 drivers/usb/host/built-in.o
 .text.ehci_set_controller_priv
                0x0000000000000000      0x10c drivers/usb/host/built-in.o
 .text.ehci_get_controller_priv
                0x0000000000000000       0x3c drivers/usb/host/built-in.o
 .text.create_int_queue
                0x0000000000000000        0x4 drivers/usb/host/built-in.o
 .text.poll_int_queue
                0x0000000000000000        0x4 drivers/usb/host/built-in.o
 .text.destroy_int_queue
                0x0000000000000000        0x4 drivers/usb/host/built-in.o
 .data          0x0000000000000000        0x0 drivers/usb/host/built-in.o
 .bss           0x0000000000000000        0x0 drivers/usb/host/built-in.o
 .text          0x0000000000000000        0x0 env/built-in.o
 .text.env_flags_parse_varaccess_from_binflags
                0x0000000000000000       0x74 env/built-in.o
 .data          0x0000000000000000        0x0 env/built-in.o
 .bss           0x0000000000000000        0x0 env/built-in.o
 .text          0x0000000000000000        0x0 fs/built-in.o
 .text.fs_uuid  0x0000000000000000       0x48 fs/built-in.o
 .text.fs_write
                0x0000000000000000       0xb0 fs/built-in.o
 .text.do_save  0x0000000000000000      0x180 fs/built-in.o
 .text.do_fs_uuid
                0x0000000000000000       0xac fs/built-in.o
 .text.do_fs_type
                0x0000000000000000       0x90 fs/built-in.o
 .text.fat_register_device
                0x0000000000000000       0x98 fs/built-in.o
 .text.file_fat_read
                0x0000000000000000       0x54 fs/built-in.o
 .data          0x0000000000000000        0x0 fs/built-in.o
 .bss           0x0000000000000000        0x0 fs/built-in.o
 .text          0x0000000000000000        0x0 lib/built-in.o
 .text.fdt_setprop_inplace_namelen_partial
                0x0000000000000000       0x74 lib/built-in.o
 .text.fdt_setprop_inplace
                0x0000000000000000       0x8c lib/built-in.o
 .text.fdt_nop_property
                0x0000000000000000       0x64 lib/built-in.o
 .text.fdt_nop_node
                0x0000000000000000       0x78 lib/built-in.o
 .text._fdt_grab_space
                0x0000000000000000       0x48 lib/built-in.o
 .text.fdt_create
                0x0000000000000000       0x80 lib/built-in.o
 .text.fdt_resize
                0x0000000000000000       0xcc lib/built-in.o
 .text.fdt_add_reservemap_entry
                0x0000000000000000       0x80 lib/built-in.o
 .text.fdt_finish_reservemap
                0x0000000000000000       0x3c lib/built-in.o
 .text.fdt_begin_node
                0x0000000000000000       0x90 lib/built-in.o
 .text.fdt_end_node
                0x0000000000000000       0x60 lib/built-in.o
 .text.fdt_property_placeholder
                0x0000000000000000      0x110 lib/built-in.o
 .text.fdt_property
                0x0000000000000000       0x58 lib/built-in.o
 .text.fdt_finish
                0x0000000000000000      0x108 lib/built-in.o
 .text.fdt_set_name
                0x0000000000000000       0xac lib/built-in.o
 .text.fdt_appendprop
                0x0000000000000000       0xf4 lib/built-in.o
 .text.fdt_pack
                0x0000000000000000       0x6c lib/built-in.o
 .text.fdt_create_empty_tree
                0x0000000000000000       0x90 lib/built-in.o
 .text.fdt_get_max_phandle
                0x0000000000000000       0x94 lib/built-in.o
 .text.fdt_get_alias
                0x0000000000000000       0x48 lib/built-in.o
 .text.fdt_get_path
                0x0000000000000000      0x160 lib/built-in.o
 .text.fdt_stringlist_search
                0x0000000000000000       0xc8 lib/built-in.o
 .text.fdt_add_region
                0x0000000000000000       0xa8 lib/built-in.o
 .text.fdt_find_regions
                0x0000000000000000      0x384 lib/built-in.o
 .text.fdt_add_alias_regions
                0x0000000000000000      0x1c4 lib/built-in.o
 .text.fdt_next_region
                0x0000000000000000      0x55c lib/built-in.o
 .text.fdt_first_region
                0x0000000000000000       0x64 lib/built-in.o
 .text.utf16_strlen
                0x0000000000000000       0x20 lib/built-in.o
 .text.utf16_strcpy
                0x0000000000000000       0x1c lib/built-in.o
 .text.utf16_strdup
                0x0000000000000000       0x60 lib/built-in.o
 .text.utf8_to_utf16
                0x0000000000000000      0x110 lib/built-in.o
 .text.crc7     0x0000000000000000       0x58 lib/built-in.o
 .text.crc8     0x0000000000000000       0x44 lib/built-in.o
 .text.fdtdec_get_int
                0x0000000000000000       0x50 lib/built-in.o
 .text.fdtdec_get_uint
                0x0000000000000000       0x50 lib/built-in.o
 .text.lmb_dump_all
                0x0000000000000000        0x4 lib/built-in.o
 .text.lmb_is_reserved
                0x0000000000000000       0x78 lib/built-in.o
 .text.arch_lmb_reserve
                0x0000000000000000        0x4 lib/built-in.o
 .text.ldiv     0x0000000000000000       0x30 lib/built-in.o
 .text.md5      0x0000000000000000       0x78 lib/built-in.o
 .text.strcmp_compar
                0x0000000000000000       0x34 lib/built-in.o
 .text.rc4_encode
                0x0000000000000000       0xfc lib/built-in.o
 .text.merge    0x0000000000000000       0x80 lib/built-in.o
 .text.list_sort
                0x0000000000000000      0x1bc lib/built-in.o
 .text.sha1_csum
                0x0000000000000000       0x5c lib/built-in.o
 .text.sha1_hmac
                0x0000000000000000      0x158 lib/built-in.o
 .text.sha1_self_test
                0x0000000000000000        0x8 lib/built-in.o
 .text.inflateInit_
                0x0000000000000000       0x38 lib/built-in.o
 .text.hmatch_r
                0x0000000000000000       0xbc lib/built-in.o
 .text.print_freq
                0x0000000000000000      0x174 lib/built-in.o
 .text.div_s64_rem
                0x0000000000000000       0xec lib/built-in.o
 .text.div64_u64_rem
                0x0000000000000000      0x14c lib/built-in.o
 .text.div64_u64
                0x0000000000000000      0x114 lib/built-in.o
 .text.div64_s64
                0x0000000000000000       0x6c lib/built-in.o
 .text.iter_div_u64_rem
                0x0000000000000000       0x44 lib/built-in.o
 .text.copy_from_user
                0x0000000000000000       0x30 lib/built-in.o
 .text.kmalloc  0x0000000000000000       0x58 lib/built-in.o
 .text.get_mem  0x0000000000000000       0x2c lib/built-in.o
 .text.kmem_cache_alloc
                0x0000000000000000        0xc lib/built-in.o
 .text.membuff_purge
                0x0000000000000000       0x10 lib/built-in.o
 .text.membuff_putraw
                0x0000000000000000       0xc4 lib/built-in.o
 .text.membuff_putbyte
                0x0000000000000000       0x54 lib/built-in.o
 .text.membuff_getraw
                0x0000000000000000       0x9c lib/built-in.o
 .text.membuff_getbyte
                0x0000000000000000       0x58 lib/built-in.o
 .text.membuff_peekbyte
                0x0000000000000000       0x58 lib/built-in.o
 .text.membuff_get
                0x0000000000000000       0x94 lib/built-in.o
 .text.membuff_put
                0x0000000000000000       0x84 lib/built-in.o
 .text.membuff_isempty
                0x0000000000000000       0x18 lib/built-in.o
 .text.membuff_avail
                0x0000000000000000       0x88 lib/built-in.o
 .text.membuff_size
                0x0000000000000000       0x10 lib/built-in.o
 .text.membuff_makecontig
                0x0000000000000000       0x9c lib/built-in.o
 .text.membuff_free
                0x0000000000000000       0x50 lib/built-in.o
 .text.membuff_readline
                0x0000000000000000       0xd0 lib/built-in.o
 .text.membuff_extend_by
                0x0000000000000000       0xdc lib/built-in.o
 .text.membuff_init
                0x0000000000000000       0x38 lib/built-in.o
 .text.membuff_new
                0x0000000000000000       0x60 lib/built-in.o
 .text.membuff_uninit
                0x0000000000000000       0x38 lib/built-in.o
 .text.membuff_dispose
                0x0000000000000000       0x38 lib/built-in.o
 .text.strlcpy  0x0000000000000000       0x74 lib/built-in.o
 .text.strchrnul
                0x0000000000000000       0x24 lib/built-in.o
 .text.strcspn  0x0000000000000000       0x3c lib/built-in.o
 .text.strspn   0x0000000000000000       0x38 lib/built-in.o
 .text.strtok   0x0000000000000000       0xa8 lib/built-in.o
 .text.strsep   0x0000000000000000       0x64 lib/built-in.o
 .text.strswab  0x0000000000000000       0x54 lib/built-in.o
 .text.memscan  0x0000000000000000       0x24 lib/built-in.o
 .text.memchr_inv
                0x0000000000000000       0xf8 lib/built-in.o
 .text.table_compute_checksum
                0x0000000000000000       0x40 lib/built-in.o
 .text.tick_to_time
                0x0000000000000000       0x80 lib/built-in.o
 .text.get_ticks
                0x0000000000000000       0x58 lib/built-in.o
 .text.timer_init
                0x0000000000000000        0x8 lib/built-in.o
 .text.get_timer
                0x0000000000000000       0x38 lib/built-in.o
 .text.timer_get_us
                0x0000000000000000       0x48 lib/built-in.o
 .text.__udelay
                0x0000000000000000       0xf4 lib/built-in.o
 .text.rand     0x0000000000000000       0x30 lib/built-in.o
 .text.srand    0x0000000000000000       0x34 lib/built-in.o
 .text.scnprintf
                0x0000000000000000       0x64 lib/built-in.o
 .text.__assert_fail
                0x0000000000000000       0x2c lib/built-in.o
 .text.print_grouped_ull
                0x0000000000000000       0xa0 lib/built-in.o
 .text.panic_str
                0x0000000000000000       0x28 lib/built-in.o
 .rodata.fdt_find_regions
                0x0000000000000000       0x24 lib/built-in.o
 .rodata.fdt_next_region
                0x0000000000000000       0x24 lib/built-in.o
 .rodata.crc7_syndrome_table
                0x0000000000000000      0x100 lib/built-in.o
 .rodata.sha1_der_prefix
                0x0000000000000000        0xf lib/built-in.o
 .rodata.sha256_der_prefix
                0x0000000000000000       0x13 lib/built-in.o
 .rodata.names.7550
                0x0000000000000000        0x3 lib/built-in.o
 .data          0x0000000000000000        0x0 lib/built-in.o
 .data.y        0x0000000000000000        0x4 lib/built-in.o
 .bss           0x0000000000000000        0x0 lib/built-in.o
 .sbss          0x0000000000000000        0x4 lib/built-in.o
 .text          0x0000000000000000        0x0 net/built-in.o
 .text.add_ip_checksums
                0x0000000000000000       0x44 net/built-in.o
 .text.eth_get_dev_by_index
                0x0000000000000000       0x64 net/built-in.o
 .text.eth_unregister
                0x0000000000000000       0xbc net/built-in.o
 .text.eth_is_active
                0x0000000000000000       0x24 net/built-in.o
 .text.net_get_udp_handler
                0x0000000000000000       0x34 net/built-in.o
 .text.random_port
                0x0000000000000000       0x38 net/built-in.o
 .text.vlan_to_string
                0x0000000000000000       0x5c net/built-in.o
 .text.env_get_vlan
                0x0000000000000000       0x30 net/built-in.o
 .data          0x0000000000000000        0x0 net/built-in.o
 .sdata.tftp_timeout_ms
                0x0000000000000000        0x4 net/built-in.o
 .bss           0x0000000000000000        0x0 net/built-in.o
 .data          0x0000000000000000        0x0 /usr/lib/gcc-cross/powerpc-linux-gnu/5/libgcc.a(_lshrdi3.o)
 .bss           0x0000000000000000        0x0 /usr/lib/gcc-cross/powerpc-linux-gnu/5/libgcc.a(_lshrdi3.o)
 .data          0x0000000000000000        0x0 /usr/lib/gcc-cross/powerpc-linux-gnu/5/libgcc.a(_ashldi3.o)
 .bss           0x0000000000000000        0x0 /usr/lib/gcc-cross/powerpc-linux-gnu/5/libgcc.a(_ashldi3.o)
 .text          0x0000000000000000       0x44 /usr/lib/gcc-cross/powerpc-linux-gnu/5/libgcc.a(_ashrdi3.o)
 .data          0x0000000000000000        0x0 /usr/lib/gcc-cross/powerpc-linux-gnu/5/libgcc.a(_ashrdi3.o)
 .bss           0x0000000000000000        0x0 /usr/lib/gcc-cross/powerpc-linux-gnu/5/libgcc.a(_ashrdi3.o)
 .data          0x0000000000000000        0x0 /usr/lib/gcc-cross/powerpc-linux-gnu/5/libgcc.a(crtresxgpr.o)
 .bss           0x0000000000000000        0x0 /usr/lib/gcc-cross/powerpc-linux-gnu/5/libgcc.a(crtresxgpr.o)
 .eh_frame      0x0000000000000000       0x7c /usr/lib/gcc-cross/powerpc-linux-gnu/5/libgcc.a(crtresxgpr.o)

Memory Configuration

Name             Origin             Length             Attributes
*default*        0x0000000000000000 0xffffffffffffffff

Linker script and memory map

Address of section .text set to 0xeff40000
                0x0000000000000074                . = SIZEOF_HEADERS

.interp
 *(.interp)

.text           0x00000000eff40000    0x5a12c
 *(.text*)
 .text          0x00000000eff40000     0x1198 arch/powerpc/cpu/mpc85xx/start.o
                0x00000000eff40000                _start
                0x00000000eff40004                version_string
                0x00000000eff40050                _start_cont
                0x00000000eff400b8                _start_of_vectors
                0x00000000eff40b1c                _end_of_vectors
                0x00000000eff40c00                transfer_to_handler
                0x00000000eff40d4c                flush_icache
                0x00000000eff40d4c                invalidate_icache
                0x00000000eff40d68                invalidate_dcache
                0x00000000eff40d84                icache_enable
                0x00000000eff40dac                icache_disable
                0x00000000eff40dc8                icache_status
                0x00000000eff40dd4                dcache_enable
                0x00000000eff40e04                dcache_disable
                0x00000000eff40e20                dcache_status
                0x00000000eff40e2c                in8
                0x00000000eff40e34                out8
                0x00000000eff40e40                out16
                0x00000000eff40e4c                out16r
                0x00000000eff40e58                out32
                0x00000000eff40e64                out32r
                0x00000000eff40e70                in16
                0x00000000eff40e78                in16r
                0x00000000eff40e80                in32
                0x00000000eff40e88                in32r
                0x00000000eff40e90                write_tlb
                0x00000000eff40ebc                relocate_code
                0x00000000eff40fa4                in_ram
                0x00000000eff4103c                trap_init
                0x00000000eff410cc                unlock_ram_in_cache
                0x00000000eff41124                flush_dcache
 .text.identify_cpu
                0x00000000eff41198       0x68 arch/powerpc/cpu/built-in.o
                0x00000000eff41198                identify_cpu
 .text.cpu_mask
                0x00000000eff41200       0x74 arch/powerpc/cpu/built-in.o
                0x00000000eff41200                cpu_mask
 .text.cpu_numcores
                0x00000000eff41274       0xa8 arch/powerpc/cpu/built-in.o
                0x00000000eff41274                cpu_numcores
 .text.is_core_valid
                0x00000000eff4131c       0x44 arch/powerpc/cpu/built-in.o
                0x00000000eff4131c                is_core_valid
 .text.arch_cpu_init
                0x00000000eff41360       0x4c arch/powerpc/cpu/built-in.o
                0x00000000eff41360                arch_cpu_init
 .text.fixup_cpu
                0x00000000eff413ac       0x4c arch/powerpc/cpu/built-in.o
                0x00000000eff413ac                fixup_cpu
 .text.cpu_eth_init
                0x00000000eff413f8       0x30 arch/powerpc/cpu/built-in.o
                0x00000000eff413f8                cpu_eth_init
 .text.ft_fixup_num_cores
                0x00000000eff41428      0x144 arch/powerpc/cpu/built-in.o
                0x00000000eff41428                ft_fixup_num_cores
 .text.__lbc_sdram_init
                0x00000000eff4156c        0x4 arch/powerpc/cpu/built-in.o
                0x00000000eff4156c                lbc_sdram_init
 .text.print_lbc_regs
                0x00000000eff41570       0xb0 arch/powerpc/cpu/built-in.o
                0x00000000eff41570                print_lbc_regs
 .text.init_early_memctl_regs
                0x00000000eff41620       0xc0 arch/powerpc/cpu/built-in.o
                0x00000000eff41620                init_early_memctl_regs
 .text.set_law  0x00000000eff416e0       0x70 arch/powerpc/cpu/built-in.o
                0x00000000eff416e0                set_law
 .text.disable_law
                0x00000000eff41750       0x4c arch/powerpc/cpu/built-in.o
                0x00000000eff41750                disable_law
 .text.set_next_law
                0x00000000eff4179c       0x70 arch/powerpc/cpu/built-in.o
                0x00000000eff4179c                set_next_law
 .text.set_last_law
                0x00000000eff4180c       0x70 arch/powerpc/cpu/built-in.o
                0x00000000eff4180c                set_last_law
 .text.print_laws
                0x00000000eff4187c       0xc4 arch/powerpc/cpu/built-in.o
                0x00000000eff4187c                print_laws
 .text.set_ddr_laws
                0x00000000eff41940      0x324 arch/powerpc/cpu/built-in.o
                0x00000000eff41940                set_ddr_laws
 .text.disable_non_ddr_laws
                0x00000000eff41c64       0x84 arch/powerpc/cpu/built-in.o
                0x00000000eff41c64                disable_non_ddr_laws
 .text.init_laws
                0x00000000eff41ce8       0xe0 arch/powerpc/cpu/built-in.o
                0x00000000eff41ce8                init_laws
 *fill*         0x00000000eff41dc8      0x238 
 .text          0x00000000eff42000     0x2100 arch/powerpc/cpu/mpc85xx/built-in.o
                0x00000000eff42000                __secondary_start_page
                0x00000000eff42140                __bootpg_addr
                0x00000000eff42144                __spin_table_addr
                0x00000000eff42160                enable_cpu_a011_workaround
                0x00000000eff43000                __second_half_boot_page
                0x00000000eff43100                __spin_table
                0x00000000eff43180                spin_table_compat
 .text.ft_fixup_cpu
                0x00000000eff44100      0x278 arch/powerpc/cpu/mpc85xx/built-in.o
                0x00000000eff44100                ft_fixup_cpu
 .text.fdt_add_enet_stashing
                0x00000000eff44378       0xd4 arch/powerpc/cpu/mpc85xx/built-in.o
                0x00000000eff44378                fdt_add_enet_stashing
 .text.ft_cpu_setup
                0x00000000eff4444c      0x610 arch/powerpc/cpu/mpc85xx/built-in.o
                0x00000000eff4444c                ft_cpu_setup
 .text.ft_verify_fdt
                0x00000000eff44a5c      0x1a4 arch/powerpc/cpu/mpc85xx/built-in.o
                0x00000000eff44a5c                ft_verify_fdt
 .text.get_my_id
                0x00000000eff44c00        0x8 arch/powerpc/cpu/mpc85xx/built-in.o
                0x00000000eff44c00                get_my_id
 .text.hold_cores_in_reset
                0x00000000eff44c08       0x60 arch/powerpc/cpu/mpc85xx/built-in.o
                0x00000000eff44c08                hold_cores_in_reset
 .text.cpu_reset
                0x00000000eff44c68       0x40 arch/powerpc/cpu/mpc85xx/built-in.o
                0x00000000eff44c68                cpu_reset
 .text.cpu_disable
                0x00000000eff44ca8       0x94 arch/powerpc/cpu/mpc85xx/built-in.o
                0x00000000eff44ca8                cpu_disable
 .text.is_core_disabled
                0x00000000eff44d3c       0x74 arch/powerpc/cpu/mpc85xx/built-in.o
                0x00000000eff44d3c                is_core_disabled
 .text.cpu_status
                0x00000000eff44db0       0xc8 arch/powerpc/cpu/mpc85xx/built-in.o
                0x00000000eff44db0                cpu_status
 .text.cpu_release
                0x00000000eff44e78       0xec arch/powerpc/cpu/mpc85xx/built-in.o
                0x00000000eff44e78                cpu_release
 .text.determine_mp_bootpg
                0x00000000eff44f64       0x50 arch/powerpc/cpu/mpc85xx/built-in.o
                0x00000000eff44f64                determine_mp_bootpg
 .text.get_spin_phys_addr
                0x00000000eff44fb4       0x30 arch/powerpc/cpu/mpc85xx/built-in.o
                0x00000000eff44fb4                get_spin_phys_addr
 .text.cpu_mp_lmb_reserve
                0x00000000eff44fe4       0x4c arch/powerpc/cpu/mpc85xx/built-in.o
                0x00000000eff44fe4                cpu_mp_lmb_reserve
 .text.setup_mp
                0x00000000eff45030      0x260 arch/powerpc/cpu/mpc85xx/built-in.o
                0x00000000eff45030                setup_mp
 .text.fsl_serdes_init
                0x00000000eff45290       0x90 arch/powerpc/cpu/mpc85xx/built-in.o
                0x00000000eff45290                fsl_serdes_init
 .text.is_serdes_configured
                0x00000000eff45320       0x54 arch/powerpc/cpu/mpc85xx/built-in.o
                0x00000000eff45320                is_serdes_configured
 .text.__board_reset
                0x00000000eff45374        0x4 arch/powerpc/cpu/mpc85xx/built-in.o
                0x00000000eff45374                board_reset
 .text.checkcpu
                0x00000000eff45378      0x2c8 arch/powerpc/cpu/mpc85xx/built-in.o
                0x00000000eff45378                checkcpu
 .text.do_reset
                0x00000000eff45640       0x4c arch/powerpc/cpu/mpc85xx/built-in.o
                0x00000000eff45640                do_reset
 .text.get_tbclk
                0x00000000eff4568c       0x10 arch/powerpc/cpu/mpc85xx/built-in.o
                0x00000000eff4568c                get_tbclk
 .text.print_reginfo
                0x00000000eff4569c       0x34 arch/powerpc/cpu/mpc85xx/built-in.o
                0x00000000eff4569c                print_reginfo
 .text.dram_init
                0x00000000eff456d0       0x54 arch/powerpc/cpu/mpc85xx/built-in.o
                0x00000000eff456d0                dram_init
 .text.cpu_init_f
                0x00000000eff45724       0x44 arch/powerpc/cpu/mpc85xx/built-in.o
                0x00000000eff45724                cpu_init_f
 .text.l2cache_init
                0x00000000eff45768      0x15c arch/powerpc/cpu/mpc85xx/built-in.o
                0x00000000eff45768                l2cache_init
 .text.cpu_init_r
                0x00000000eff458c4       0x70 arch/powerpc/cpu/mpc85xx/built-in.o
                0x00000000eff458c4                cpu_init_r
 .text.arch_preboot_os
                0x00000000eff45934       0x18 arch/powerpc/cpu/mpc85xx/built-in.o
                0x00000000eff45934                arch_preboot_os
 .text.cpu_secondary_init_r
                0x00000000eff4594c        0x4 arch/powerpc/cpu/mpc85xx/built-in.o
                0x00000000eff4594c                cpu_secondary_init_r
 .text.cpu_init_early_f
                0x00000000eff45950       0x6c arch/powerpc/cpu/mpc85xx/built-in.o
                0x00000000eff45950                cpu_init_early_f
 .text.interrupt_init_cpu
                0x00000000eff459bc       0x94 arch/powerpc/cpu/mpc85xx/built-in.o
                0x00000000eff459bc                interrupt_init_cpu
 .text.irq_install_handler
                0x00000000eff45a50        0x4 arch/powerpc/cpu/mpc85xx/built-in.o
                0x00000000eff45a50                irq_install_handler
 .text.irq_free_handler
                0x00000000eff45a54        0x4 arch/powerpc/cpu/mpc85xx/built-in.o
                0x00000000eff45a54                irq_free_handler
 .text.timer_interrupt_cpu
                0x00000000eff45a58        0xc arch/powerpc/cpu/mpc85xx/built-in.o
                0x00000000eff45a58                timer_interrupt_cpu
 .text.do_irqinfo
                0x00000000eff45a64        0x8 arch/powerpc/cpu/mpc85xx/built-in.o
                0x00000000eff45a64                do_irqinfo
 .text.get_sys_info
                0x00000000eff45a6c       0xb8 arch/powerpc/cpu/mpc85xx/built-in.o
                0x00000000eff45a6c                get_sys_info
 .text.get_clocks
                0x00000000eff45b24       0x7c arch/powerpc/cpu/mpc85xx/built-in.o
                0x00000000eff45b24                get_clocks
 .text.get_bus_freq
                0x00000000eff45ba0        0x8 arch/powerpc/cpu/mpc85xx/built-in.o
                0x00000000eff45ba0                get_bus_freq
 .text.get_ddr_freq
                0x00000000eff45ba8        0x8 arch/powerpc/cpu/mpc85xx/built-in.o
                0x00000000eff45ba8                get_ddr_freq
 .text.invalidate_tlb
                0x00000000eff45bb0       0x24 arch/powerpc/cpu/mpc85xx/built-in.o
                0x00000000eff45bb0                invalidate_tlb
 .text.init_tlbs
                0x00000000eff45bd4       0x64 arch/powerpc/cpu/mpc85xx/built-in.o
                0x00000000eff45bd4                init_tlbs
 .text.read_tlbcam_entry
                0x00000000eff45c38       0x4c arch/powerpc/cpu/mpc85xx/built-in.o
                0x00000000eff45c38                read_tlbcam_entry
 .text.print_tlbcam
                0x00000000eff45c84       0xbc arch/powerpc/cpu/mpc85xx/built-in.o
                0x00000000eff45c84                print_tlbcam
 .text.init_used_tlb_cams
                0x00000000eff45d40       0x70 arch/powerpc/cpu/mpc85xx/built-in.o
                0x00000000eff45d40                init_used_tlb_cams
 .text.find_free_tlbcam
                0x00000000eff45db0       0x48 arch/powerpc/cpu/mpc85xx/built-in.o
                0x00000000eff45db0                find_free_tlbcam
 .text.set_tlb  0x00000000eff45df8      0x11c arch/powerpc/cpu/mpc85xx/built-in.o
                0x00000000eff45df8                set_tlb
 .text.disable_tlb
                0x00000000eff45f14       0xa0 arch/powerpc/cpu/mpc85xx/built-in.o
                0x00000000eff45f14                disable_tlb
 .text.find_tlb_idx
                0x00000000eff45fb4       0x40 arch/powerpc/cpu/mpc85xx/built-in.o
                0x00000000eff45fb4                find_tlb_idx
 .text.init_addr_map
                0x00000000eff45ff4       0xa8 arch/powerpc/cpu/mpc85xx/built-in.o
                0x00000000eff45ff4                init_addr_map
 .text.tlb_map_range
                0x00000000eff4609c      0x17c arch/powerpc/cpu/mpc85xx/built-in.o
                0x00000000eff4609c                tlb_map_range
 .text.setup_ddr_tlbs_phys
                0x00000000eff46218       0xbc arch/powerpc/cpu/mpc85xx/built-in.o
                0x00000000eff46218                setup_ddr_tlbs_phys
 .text.setup_ddr_tlbs
                0x00000000eff462d4       0x38 arch/powerpc/cpu/mpc85xx/built-in.o
                0x00000000eff462d4                setup_ddr_tlbs
 .text.print_backtrace
                0x00000000eff4630c       0xbc arch/powerpc/cpu/mpc85xx/built-in.o
 .text.show_regs
                0x00000000eff463c8       0xcc arch/powerpc/cpu/mpc85xx/built-in.o
                0x00000000eff463c8                show_regs
 .text.CritcalInputException
                0x00000000eff46494       0x28 arch/powerpc/cpu/mpc85xx/built-in.o
                0x00000000eff46494                CritcalInputException
 .text.MachineCheckException
                0x00000000eff464bc      0x1ac arch/powerpc/cpu/mpc85xx/built-in.o
                0x00000000eff464bc                MachineCheckException
 .text.AlignmentException
                0x00000000eff46668       0x38 arch/powerpc/cpu/mpc85xx/built-in.o
                0x00000000eff46668                AlignmentException
 .text.ProgramCheckException
                0x00000000eff466a0       0x64 arch/powerpc/cpu/mpc85xx/built-in.o
                0x00000000eff466a0                ProgramCheckException
 .text.UnknownException
                0x00000000eff46704       0x58 arch/powerpc/cpu/mpc85xx/built-in.o
                0x00000000eff46704                UnknownException
 .text.ExtIntException
                0x00000000eff4675c       0x70 arch/powerpc/cpu/mpc85xx/built-in.o
                0x00000000eff4675c                ExtIntException
 .text.DebugException
                0x00000000eff467cc       0x40 arch/powerpc/cpu/mpc85xx/built-in.o
                0x00000000eff467cc                DebugException
 .text          0x00000000eff4680c      0x39c arch/powerpc/lib/built-in.o
                0x00000000eff4680c                strcpy
                0x00000000eff46828                strncpy
                0x00000000eff46850                strcat
                0x00000000eff4687c                strcmp
                0x00000000eff468a0                strlen
                0x00000000eff468b8                memset
                0x00000000eff46914                memmove
                0x00000000eff4691c                memcpy
                0x00000000eff469b8                backwards_memcpy
                0x00000000eff46a40                memcmp
                0x00000000eff46a70                memchr
                0x00000000eff46a98                ppcDcbf
                0x00000000eff46aa0                ppcDcbi
                0x00000000eff46aa8                ppcDcbz
                0x00000000eff46ab0                ppcSync
                0x00000000eff46ab8                flush_dcache_range
                0x00000000eff46ae8                invalidate_dcache_range
                0x00000000eff46b1c                get_ticks
                0x00000000eff46b34                wait_ticks
                0x00000000eff46b80                trap_reloc
 .text.boot_bd_t_linux
                0x00000000eff46ba8       0x98 arch/powerpc/lib/built-in.o
 .text.arch_fixup_fdt
                0x00000000eff46c40        0x8 arch/powerpc/lib/built-in.o
                0x00000000eff46c40                arch_fixup_fdt
 .text.arch_lmb_reserve
                0x00000000eff46c48       0xdc arch/powerpc/lib/built-in.o
                0x00000000eff46c48                arch_lmb_reserve
 .text.do_bootm_linux
                0x00000000eff46d24      0x128 arch/powerpc/lib/built-in.o
                0x00000000eff46d24                do_bootm_linux
 .text.boot_prep_vxworks
                0x00000000eff46e4c       0x98 arch/powerpc/lib/built-in.o
                0x00000000eff46e4c                boot_prep_vxworks
 .text.boot_jump_vxworks
                0x00000000eff46ee4       0x5c arch/powerpc/lib/built-in.o
                0x00000000eff46ee4                boot_jump_vxworks
 .text.flush_cache
                0x00000000eff46f40       0x5c arch/powerpc/lib/built-in.o
                0x00000000eff46f40                flush_cache
 .text.search_exception_table
                0x00000000eff46f9c       0x60 arch/powerpc/lib/built-in.o
                0x00000000eff46f9c                search_exception_table
 .text.enable_interrupts
                0x00000000eff46ffc       0x10 arch/powerpc/lib/built-in.o
                0x00000000eff46ffc                enable_interrupts
 .text.disable_interrupts
                0x00000000eff4700c       0x14 arch/powerpc/lib/built-in.o
                0x00000000eff4700c                disable_interrupts
 .text.interrupt_init
                0x00000000eff47020       0x54 arch/powerpc/lib/built-in.o
                0x00000000eff47020                interrupt_init
 .text.timer_interrupt
                0x00000000eff47074       0x50 arch/powerpc/lib/built-in.o
                0x00000000eff47074                timer_interrupt
 .text.get_timer
                0x00000000eff470c4       0x38 arch/powerpc/lib/built-in.o
                0x00000000eff470c4                get_timer
 .text.arch_reserve_stacks
                0x00000000eff470fc       0x20 arch/powerpc/lib/built-in.o
                0x00000000eff470fc                arch_reserve_stacks
 .text.usec2ticks
                0x00000000eff4711c       0x6c arch/powerpc/lib/built-in.o
                0x00000000eff4711c                usec2ticks
 .text.__udelay
                0x00000000eff47188       0x30 arch/powerpc/lib/built-in.o
                0x00000000eff47188                __udelay
 .text.timer_init
                0x00000000eff471b8       0x14 arch/powerpc/lib/built-in.o
                0x00000000eff471b8                timer_init
 .text.board_early_init_f
                0x00000000eff471cc        0x8 board/freescale/p1_p2_rdb_pc/built-in.o
                0x00000000eff471cc                board_early_init_f
 .text.checkboard
                0x00000000eff471d4       0x34 board/freescale/p1_p2_rdb_pc/built-in.o
                0x00000000eff471d4                checkboard
 .text.pci_init_board
                0x00000000eff47208       0x30 board/freescale/p1_p2_rdb_pc/built-in.o
                0x00000000eff47208                pci_init_board
 .text.board_early_init_r
                0x00000000eff47238       0x98 board/freescale/p1_p2_rdb_pc/built-in.o
                0x00000000eff47238                board_early_init_r
 .text.board_eth_init
                0x00000000eff472d0      0x140 board/freescale/p1_p2_rdb_pc/built-in.o
                0x00000000eff472d0                board_eth_init
 .text.ft_board_setup
                0x00000000eff47410       0xd4 board/freescale/p1_p2_rdb_pc/built-in.o
                0x00000000eff47410                ft_board_setup
 .text.fixed_sdram
                0x00000000eff474e4      0x150 board/freescale/p1_p2_rdb_pc/built-in.o
                0x00000000eff474e4                fixed_sdram
 .text.do_go_exec
                0x00000000eff47634       0x30 cmd/built-in.o
                0x00000000eff47634                do_go_exec
 .text.do_go    0x00000000eff47664       0x84 cmd/built-in.o
 .text.do_bootm
                0x00000000eff476e8      0x100 cmd/built-in.o
                0x00000000eff476e8                do_bootm
 .text.do_bootd
                0x00000000eff477e8       0x3c cmd/built-in.o
                0x00000000eff477e8                do_bootd
 .text.do_imls  0x00000000eff47824      0x110 cmd/built-in.o
 .text.image_info
                0x00000000eff47934      0x11c cmd/built-in.o
 .text.do_iminfo
                0x00000000eff47a50       0x8c cmd/built-in.o
 .text.bootm_maybe_autostart
                0x00000000eff47adc       0x84 cmd/built-in.o
                0x00000000eff47adc                bootm_maybe_autostart
 .text.do_help  0x00000000eff47b60       0x5c cmd/built-in.o
 .text.do_version
                0x00000000eff47bbc       0x50 cmd/built-in.o
 .text.blk_common_cmd
                0x00000000eff47c0c      0x30c cmd/built-in.o
                0x00000000eff47c0c                blk_common_cmd
 .text.source   0x00000000eff47f18      0x1c0 cmd/built-in.o
                0x00000000eff47f18                source
 .text.do_source
                0x00000000eff480d8       0x94 cmd/built-in.o
 .text.print_num
                0x00000000eff4816c       0x38 cmd/built-in.o
 .text.print_eth
                0x00000000eff481a4       0x6c cmd/built-in.o
 .text.board_detail
                0x00000000eff48210        0x4 cmd/built-in.o
                0x00000000eff48210                board_detail
 .text.do_bdinfo
                0x00000000eff48214      0x134 cmd/built-in.o
                0x00000000eff48214                do_bdinfo
 .text.do_coninfo
                0x00000000eff48348       0xc4 cmd/built-in.o
 .text.cnvrt2   0x00000000eff4840c       0x48 cmd/built-in.o
 .text.mk_date  0x00000000eff48454      0x1f8 cmd/built-in.o
                0x00000000eff48454                mk_date
 .text.do_date  0x00000000eff4864c      0x14c cmd/built-in.o
 .text.do_echo  0x00000000eff48798       0xd0 cmd/built-in.o
 .text.parse_numeric_param
                0x00000000eff48868       0x48 cmd/built-in.o
 .text.parse_i2c_bus_addr
                0x00000000eff488b0       0x98 cmd/built-in.o
 .text.eeprom_write_enable
                0x00000000eff48948        0x8 cmd/built-in.o
                0x00000000eff48948                eeprom_write_enable
 .text.eeprom_init
                0x00000000eff48950       0x44 cmd/built-in.o
                0x00000000eff48950                eeprom_init
 .text.eeprom_read
                0x00000000eff48994       0x90 cmd/built-in.o
                0x00000000eff48994                eeprom_read
 .text.eeprom_write
                0x00000000eff48a24       0xb4 cmd/built-in.o
                0x00000000eff48a24                eeprom_write
 .text.do_eeprom
                0x00000000eff48ad8      0x1a4 cmd/built-in.o
                0x00000000eff48ad8                do_eeprom
 .text.load_elf_image_shdr
                0x00000000eff48c7c       0xac cmd/built-in.o
 .text.valid_elf_image
                0x00000000eff48d28       0x5c cmd/built-in.o
                0x00000000eff48d28                valid_elf_image
 .text.do_bootelf
                0x00000000eff48d84      0x1c0 cmd/built-in.o
                0x00000000eff48d84                do_bootelf
 .text.do_bootvx
                0x00000000eff48f44      0x2ec cmd/built-in.o
                0x00000000eff48f44                do_bootvx
 .text.do_exit  0x00000000eff49230       0x50 cmd/built-in.o
 .text.do_ext2load
                0x00000000eff49280       0x30 cmd/built-in.o
                0x00000000eff49280                do_ext2load
 .text.do_ext2ls
                0x00000000eff492b0       0x30 cmd/built-in.o
 .text.do_fat_size
                0x00000000eff492e0       0x30 cmd/built-in.o
                0x00000000eff492e0                do_fat_size
 .text.do_fat_fsload
                0x00000000eff49310       0x30 cmd/built-in.o
                0x00000000eff49310                do_fat_fsload
 .text.do_fat_ls
                0x00000000eff49340       0x30 cmd/built-in.o
 .text.do_fat_fsinfo
                0x00000000eff49370       0xa8 cmd/built-in.o
 .text.fdt_valid
                0x00000000eff49418       0xbc cmd/built-in.o
 .text.is_printable_string
                0x00000000eff494d4       0xbc cmd/built-in.o
 .text.print_data
                0x00000000eff49590      0x174 cmd/built-in.o
 .text.set_working_fdt_addr
                0x00000000eff49704       0x3c cmd/built-in.o
                0x00000000eff49704                set_working_fdt_addr
 .text.do_fdt   0x00000000eff49740      0xe64 cmd/built-in.o
 .text.flash_fill_sect_ranges
                0x00000000eff4a5a4      0x164 cmd/built-in.o
 .text.abbrev_spec
                0x00000000eff4a708      0x15c cmd/built-in.o
 .text.do_flinfo
                0x00000000eff4a864       0x74 cmd/built-in.o
 .text.flash_sect_roundb
                0x00000000eff4a8d8       0xbc cmd/built-in.o
                0x00000000eff4a8d8                flash_sect_roundb
 .text.addr_spec
                0x00000000eff4a994       0xe0 cmd/built-in.o
 .text.flash_sect_erase
                0x00000000eff4aa74       0xac cmd/built-in.o
                0x00000000eff4aa74                flash_sect_erase
 .text.do_flerase
                0x00000000eff4ab20      0x228 cmd/built-in.o
 .text.flash_sect_protect
                0x00000000eff4ad48       0xdc cmd/built-in.o
                0x00000000eff4ad48                flash_sect_protect
 .text.do_protect
                0x00000000eff4ae24      0x33c cmd/built-in.o
 .text.do_i2c   0x00000000eff4b160       0x84 cmd/built-in.o
 .text.do_i2c_bus_speed
                0x00000000eff4b1e4       0x8c cmd/built-in.o
 .text.do_i2c_reset
                0x00000000eff4b270       0x4c cmd/built-in.o
 .text.do_i2c_probe
                0x00000000eff4b2bc      0x104 cmd/built-in.o
 .text.do_i2c_bus_num
                0x00000000eff4b3c0       0xc0 cmd/built-in.o
 .text.do_i2c_show_bus
                0x00000000eff4b480       0xf4 cmd/built-in.o
 .text.get_alen.constprop.5
                0x00000000eff4b574       0x40 cmd/built-in.o
 .text.do_i2c_crc
                0x00000000eff4b5b4      0x130 cmd/built-in.o
 .text.mod_i2c_mem.isra.3
                0x00000000eff4b6e4      0x204 cmd/built-in.o
 .text.do_i2c_nm
                0x00000000eff4b8e8        0x8 cmd/built-in.o
 .text.do_i2c_mm
                0x00000000eff4b8f0        0x8 cmd/built-in.o
 .text.do_i2c_md
                0x00000000eff4b8f8      0x1dc cmd/built-in.o
 .text.do_i2c_read
                0x00000000eff4bad4       0xdc cmd/built-in.o
 .text.do_i2c_mw
                0x00000000eff4bbb0      0x114 cmd/built-in.o
 .text.do_i2c_write
                0x00000000eff4bcc4      0x154 cmd/built-in.o
 .text.do_i2c_loop
                0x00000000eff4be18      0x108 cmd/built-in.o
 .text.i2c_init_board
                0x00000000eff4bf20        0x4 cmd/built-in.o
                0x00000000eff4bf20                i2c_init_board
 .text.do_interrupts
                0x00000000eff4bf24       0x5c cmd/built-in.o
 .text.evalexp  0x00000000eff4bf80       0xd4 cmd/built-in.o
 .text.evalstr  0x00000000eff4c054       0x94 cmd/built-in.o
 .text.binary_test
                0x00000000eff4c0e8      0x1c4 cmd/built-in.o
 .text.do_itest
                0x00000000eff4c2ac       0x9c cmd/built-in.o
 .text.bin_data_init
                0x00000000eff4c348       0x4c cmd/built-in.o
 .text.k_data_save
                0x00000000eff4c394       0x64 cmd/built-in.o
 .text.k_data_restore
                0x00000000eff4c3f8       0x64 cmd/built-in.o
 .text.getcxmodem
                0x00000000eff4c45c       0x44 cmd/built-in.o
 .text.load_serial_ymodem
                0x00000000eff4c4a0      0x11c cmd/built-in.o
 .text.bin_data_char
                0x00000000eff4c5bc       0x50 cmd/built-in.o
 .text.chk1.constprop.1
                0x00000000eff4c60c       0x54 cmd/built-in.o
 .text.s1_sendpacket.constprop.2
                0x00000000eff4c660       0x68 cmd/built-in.o
 .text.load_serial
                0x00000000eff4c6c8      0x214 cmd/built-in.o
 .text.do_load_serial
                0x00000000eff4c8dc      0x1a4 cmd/built-in.o
 .text.do_load_serial_bin
                0x00000000eff4ca80      0x73c cmd/built-in.o
 .text.do_mem_mw
                0x00000000eff4d1bc       0xf0 cmd/built-in.o
 .text.do_mem_loop
                0x00000000eff4d2ac      0x110 cmd/built-in.o
 .text.do_mem_md
                0x00000000eff4d3bc       0xf4 cmd/built-in.o
 .text.do_mem_cmp
                0x00000000eff4d4b0      0x170 cmd/built-in.o
 .text.do_mem_base
                0x00000000eff4d620       0x5c cmd/built-in.o
 .text.do_mem_cp
                0x00000000eff4d67c      0x110 cmd/built-in.o
 .text.do_mem_crc
                0x00000000eff4d78c       0x5c cmd/built-in.o
 .text.mod_mem.isra.0
                0x00000000eff4d7e8      0x1a4 cmd/built-in.o
 .text.do_mem_mm
                0x00000000eff4d98c        0x8 cmd/built-in.o
 .text.do_mem_nm
                0x00000000eff4d994        0x8 cmd/built-in.o
 .text.extract_range
                0x00000000eff4d99c      0x11c cmd/built-in.o
 .text.do_mii   0x00000000eff4dab8      0x880 cmd/built-in.o
 .text.do_mdio  0x00000000eff4e338      0x4b0 cmd/built-in.o
 .text.do_sleep
                0x00000000eff4e7e8       0xec cmd/built-in.o
 .text.do_mmcops
                0x00000000eff4e8d4       0xd4 cmd/built-in.o
 .text.init_mmc_device
                0x00000000eff4e9a8       0x7c cmd/built-in.o
 .text.do_mmc_rescan
                0x00000000eff4ea24       0x40 cmd/built-in.o
 .text.do_mmc_hwpartition
                0x00000000eff4ea64      0x4f8 cmd/built-in.o
 .text.do_mmc_list
                0x00000000eff4ef5c       0x34 cmd/built-in.o
 .text.do_mmc_dev
                0x00000000eff4ef90      0x140 cmd/built-in.o
 .text.do_mmc_read
                0x00000000eff4f0d0       0xfc cmd/built-in.o
 .text.do_mmc_part
                0x00000000eff4f1cc       0x80 cmd/built-in.o
 .text.do_mmc_erase
                0x00000000eff4f24c       0xfc cmd/built-in.o
 .text.do_mmc_write
                0x00000000eff4f348      0x114 cmd/built-in.o
 .text.do_mmcinfo
                0x00000000eff4f45c      0x38c cmd/built-in.o
 .text.do_mmc_setdsr
                0x00000000eff4f7e8       0xb0 cmd/built-in.o
 .text.cpu_cmd  0x00000000eff4f898      0x168 cmd/built-in.o
 .text.part_delall
                0x00000000eff4fa00       0x58 cmd/built-in.o
 .text.memsize_parse
                0x00000000eff4fa58       0xb0 cmd/built-in.o
 .text.mtd_part_info
                0x00000000eff4fb08       0xa0 cmd/built-in.o
 .text.env_get_mtdparts
                0x00000000eff4fba8       0x68 cmd/built-in.o
 .text.memsize_format
                0x00000000eff4fc10       0x90 cmd/built-in.o
 .text.index_partitions
                0x00000000eff4fca0       0xcc cmd/built-in.o
 .text.current_save
                0x00000000eff4fd6c       0xb0 cmd/built-in.o
 .text.part_sort_add
                0x00000000eff4fe1c      0x16c cmd/built-in.o
 .text.device_del
                0x00000000eff4ff88       0x9c cmd/built-in.o
 .text.generate_mtdparts_save.constprop.7
                0x00000000eff50024      0x2c0 cmd/built-in.o
 .text.device_delall.constprop.9
                0x00000000eff502e4       0x84 cmd/built-in.o
 .text.mtd_devices_init
                0x00000000eff50368       0x50 cmd/built-in.o
 .text.get_mtd_info.constprop.10
                0x00000000eff503b8       0x90 cmd/built-in.o
 .text.part_validate
                0x00000000eff50448      0x340 cmd/built-in.o
 .text.device_find
                0x00000000eff50788       0x6c cmd/built-in.o
                0x00000000eff50788                device_find
 .text.device_parse
                0x00000000eff507f4      0x4bc cmd/built-in.o
 .text.mtd_id_parse
                0x00000000eff50cb0      0x120 cmd/built-in.o
                0x00000000eff50cb0                mtd_id_parse
 .text.find_dev_and_part
                0x00000000eff50dd0      0x1ac cmd/built-in.o
                0x00000000eff50dd0                find_dev_and_part
 .text.mtdparts_init
                0x00000000eff50f7c      0x664 cmd/built-in.o
                0x00000000eff50f7c                mtdparts_init
 .text.do_chpart
                0x00000000eff515e0       0xd0 cmd/built-in.o
 .text.do_mtdparts
                0x00000000eff516b0      0x5c8 cmd/built-in.o
 .text.set_dev  0x00000000eff51c78       0x74 cmd/built-in.o
 .text.nand_print_and_set_info
                0x00000000eff51cec       0xd8 cmd/built-in.o
 .text.do_nand  0x00000000eff51dc4      0xc1c cmd/built-in.o
 .text.nand_load_image
                0x00000000eff529e0      0x208 cmd/built-in.o
 .text.do_nandboot
                0x00000000eff52be8      0x240 cmd/built-in.o
 .text.netboot_common
                0x00000000eff52e28      0x2a0 cmd/built-in.o
 .text.do_bootp
                0x00000000eff530c8        0xc cmd/built-in.o
 .text.do_nfs   0x00000000eff530d4        0xc cmd/built-in.o
 .text.do_tftpb
                0x00000000eff530e0       0x60 cmd/built-in.o
                0x00000000eff530e0                do_tftpb
 .text.do_ping  0x00000000eff53140       0x90 cmd/built-in.o
 .text.pci_cfg_write
                0x00000000eff531d0       0x60 cmd/built-in.o
 .text.pci_read_config
                0x00000000eff53230       0x5c cmd/built-in.o
 .text.pci_show_regs
                0x00000000eff5328c       0xa4 cmd/built-in.o
 .text.pci_cfg_modify.isra.1
                0x00000000eff53330      0x134 cmd/built-in.o
 .text.pci_header_show
                0x00000000eff53464       0xc4 cmd/built-in.o
                0x00000000eff53464                pci_header_show
 .text.pciinfo_header
                0x00000000eff53528       0x50 cmd/built-in.o
                0x00000000eff53528                pciinfo_header
 .text.pci_header_show_brief
                0x00000000eff53578       0x90 cmd/built-in.o
                0x00000000eff53578                pci_header_show_brief
 .text.pciinfo  0x00000000eff53608      0x158 cmd/built-in.o
                0x00000000eff53608                pciinfo
 .text.do_pci   0x00000000eff53760      0x3dc cmd/built-in.o
 .text.do_reginfo
                0x00000000eff53b3c       0x30 cmd/built-in.o
 .text.sata_remove
                0x00000000eff53b6c       0x2c cmd/built-in.o
                0x00000000eff53b6c                sata_remove
 .text.sata_probe
                0x00000000eff53b98       0x30 cmd/built-in.o
                0x00000000eff53b98                sata_probe
 .text.do_sata  0x00000000eff53bc8      0x104 cmd/built-in.o
 .text.bytes_per_second
                0x00000000eff53ccc       0x64 cmd/built-in.o
 .text.do_spi_flash
                0x00000000eff53d30      0x814 cmd/built-in.o
 .text.substitute
                0x00000000eff54544      0x100 cmd/built-in.o
 .text.get_arg  0x00000000eff54644       0x7c cmd/built-in.o
 .text.regex_sub
                0x00000000eff546c0      0x304 cmd/built-in.o
 .text.do_setexpr
                0x00000000eff549c4      0x1ac cmd/built-in.o
 .text.do_false
                0x00000000eff54b70        0x8 cmd/built-in.o
 .text.do_true  0x00000000eff54b78        0x8 cmd/built-in.o
 .text.do_test  0x00000000eff54b80      0x330 cmd/built-in.o
 .text.usb_get_class_desc
                0x00000000eff54eb0       0xa4 cmd/built-in.o
 .text.usb_find_device
                0x00000000eff54f54       0x5c cmd/built-in.o
 .text.usb_show_tree_graph
                0x00000000eff54fb0      0x244 cmd/built-in.o
 .text.usb_display_class_sub
                0x00000000eff551f4      0x148 cmd/built-in.o
 .text.usb_display_desc
                0x00000000eff5533c      0x130 cmd/built-in.o
 .text.usb_display_string
                0x00000000eff5546c       0x58 cmd/built-in.o
 .text.usb_display_config
                0x00000000eff554c4      0x208 cmd/built-in.o
 .text.do_usbboot
                0x00000000eff556cc       0x30 cmd/built-in.o
 .text.do_usb_start
                0x00000000eff556fc       0x4c cmd/built-in.o
 .text.usb_show_tree
                0x00000000eff55748       0x74 cmd/built-in.o
                0x00000000eff55748                usb_show_tree
 .text.do_usb   0x00000000eff557bc      0x3dc cmd/built-in.o
 .text.common_diskboot
                0x00000000eff55b98      0x28c cmd/built-in.o
                0x00000000eff55b98                common_diskboot
 .text.do_imgextract
                0x00000000eff55e24      0x378 cmd/built-in.o
 .text.do_env_delete
                0x00000000eff5619c       0xb4 cmd/built-in.o
 .text.do_env_exists
                0x00000000eff56250       0x7c cmd/built-in.o
 .text.do_env_save
                0x00000000eff562cc       0x34 cmd/built-in.o
 .text.do_env   0x00000000eff56300       0x84 cmd/built-in.o
 .text.env_print
                0x00000000eff56384       0xe0 cmd/built-in.o
 .text.do_env_print
                0x00000000eff56464       0xdc cmd/built-in.o
 .text.do_env_import
                0x00000000eff56540      0x24c cmd/built-in.o
 .text.do_env_default
                0x00000000eff5678c       0xa4 cmd/built-in.o
 .text._do_env_set.isra.0
                0x00000000eff56830      0x1d4 cmd/built-in.o
 .text.do_env_set
                0x00000000eff56a04       0x20 cmd/built-in.o
 .text.get_env_id
                0x00000000eff56a24       0x34 cmd/built-in.o
                0x00000000eff56a24                get_env_id
 .text.env_set  0x00000000eff56a58       0x7c cmd/built-in.o
                0x00000000eff56a58                env_set
 .text.env_set_ulong
                0x00000000eff56ad4       0x40 cmd/built-in.o
                0x00000000eff56ad4                env_set_ulong
 .text.env_set_hex
                0x00000000eff56b14       0x4c cmd/built-in.o
                0x00000000eff56b14                env_set_hex
 .text.do_env_export
                0x00000000eff56b60      0x214 cmd/built-in.o
 .text.envmatch
                0x00000000eff56d74       0x8c cmd/built-in.o
                0x00000000eff56d74                envmatch
 .text.env_get_f
                0x00000000eff56e00       0xec cmd/built-in.o
                0x00000000eff56e00                env_get_f
 .text.env_get  0x00000000eff56eec       0xa8 cmd/built-in.o
                0x00000000eff56eec                env_get
 .text.env_get_hex
                0x00000000eff56f94       0x58 cmd/built-in.o
                0x00000000eff56f94                env_get_hex
 .text.env_get_ulong
                0x00000000eff56fec       0x50 cmd/built-in.o
                0x00000000eff56fec                env_get_ulong
 .text.do_env_edit.part.2
                0x00000000eff5703c       0xc8 cmd/built-in.o
 .text.do_env_edit
                0x00000000eff57104       0x28 cmd/built-in.o
 .text.show_boot_progress
                0x00000000eff5712c        0x8 common/built-in.o
                0x00000000eff5712c                show_boot_progress
 .text.main_loop
                0x00000000eff57134       0x40 common/built-in.o
                0x00000000eff57134                main_loop
 .text.mdelay   0x00000000eff57174       0x44 common/built-in.o
 .text.dummy    0x00000000eff571b8        0x4 common/built-in.o
 .text.get_version
                0x00000000eff571bc        0x8 common/built-in.o
                0x00000000eff571bc                get_version
 .text.jumptable_init
                0x00000000eff571c4      0x1b0 common/built-in.o
                0x00000000eff571c4                jumptable_init
 .text.hash_finish_crc32
                0x00000000eff57374       0x44 common/built-in.o
 .text.hash_update_crc32
                0x00000000eff573b8       0x44 common/built-in.o
 .text.hash_init_crc32
                0x00000000eff573fc       0x34 common/built-in.o
 .text.hash_finish_sha256
                0x00000000eff57430       0x58 common/built-in.o
 .text.hash_update_sha256
                0x00000000eff57488       0x3c common/built-in.o
 .text.hash_init_sha256
                0x00000000eff574c4       0x44 common/built-in.o
 .text.hash_finish_sha1
                0x00000000eff57508       0x58 common/built-in.o
 .text.hash_update_sha1
                0x00000000eff57560       0x3c common/built-in.o
 .text.hash_init_sha1
                0x00000000eff5759c       0x44 common/built-in.o
 .text.hash_lookup_algo
                0x00000000eff575e0       0x6c common/built-in.o
                0x00000000eff575e0                hash_lookup_algo
 .text.hash_command
                0x00000000eff5764c      0x1e0 common/built-in.o
                0x00000000eff5764c                hash_command
 .text.b_reset  0x00000000eff5782c       0x20 common/built-in.o
 .text.static_get
                0x00000000eff5784c       0x20 common/built-in.o
 .text.file_peek
                0x00000000eff5786c        0xc common/built-in.o
 .text.mapset   0x00000000eff57878       0x48 common/built-in.o
 .text.syntax_err
                0x00000000eff578c0       0x30 common/built-in.o
 .text.free_pipe_list
                0x00000000eff578f0       0xe4 common/built-in.o
 .text.xmalloc  0x00000000eff579d4       0x40 common/built-in.o
 .text.new_pipe
                0x00000000eff57a14       0x3c common/built-in.o
 .text.xrealloc
                0x00000000eff57a50       0x40 common/built-in.o
 .text.done_command
                0x00000000eff57a90       0x98 common/built-in.o
 .text.done_pipe
                0x00000000eff57b28       0x58 common/built-in.o
 .text.done_word
                0x00000000eff57b80      0x350 common/built-in.o
 .text.do_showvar
                0x00000000eff57ed0      0x118 common/built-in.o
 .text.is_assignment
                0x00000000eff57fe8       0x7c common/built-in.o
 .text.file_get
                0x00000000eff58064      0x1dc common/built-in.o
 .text.b_addchr
                0x00000000eff58240       0x94 common/built-in.o
 .text.b_addqchr
                0x00000000eff582d4       0x78 common/built-in.o
 .text.static_peek
                0x00000000eff5834c        0xc common/built-in.o
 .text.get_local_var
                0x00000000eff58358       0xac common/built-in.o
                0x00000000eff58358                get_local_var
 .text.set_local_var
                0x00000000eff58404      0x1d0 common/built-in.o
                0x00000000eff58404                set_local_var
 .text.insert_var_value_sub
                0x00000000eff585d4      0x2d8 common/built-in.o
 .text.parse_string_outer
                0x00000000eff588ac      0x100 common/built-in.o
                0x00000000eff588ac                parse_string_outer
 .text.run_list_real
                0x00000000eff589ac      0x788 common/built-in.o
 .text.parse_stream_outer
                0x00000000eff59134      0x714 common/built-in.o
 .text.parse_file_outer
                0x00000000eff59848       0x58 common/built-in.o
                0x00000000eff59848                parse_file_outer
 .text.u_boot_hush_start
                0x00000000eff598a0       0x68 common/built-in.o
                0x00000000eff598a0                u_boot_hush_start
 .text.bootdelay_process
                0x00000000eff59908       0x64 common/built-in.o
                0x00000000eff59908                bootdelay_process
 .text.autoboot_command
                0x00000000eff5996c      0x108 common/built-in.o
                0x00000000eff5996c                autoboot_command
 .text.log_init
                0x00000000eff59a74       0x10 common/built-in.o
 .text.setup_mon_len
                0x00000000eff59a84       0x3c common/built-in.o
 .text.reserve_round_4k
                0x00000000eff59ac0       0x14 common/built-in.o
 .text.reserve_uboot
                0x00000000eff59ad4       0x44 common/built-in.o
 .text.reserve_malloc
                0x00000000eff59b18       0x18 common/built-in.o
 .text.reserve_global_data
                0x00000000eff59b30       0x20 common/built-in.o
 .text.reserve_fdt
                0x00000000eff59b50       0x4c common/built-in.o
 .text.setup_board_part1
                0x00000000eff59b9c       0x2c common/built-in.o
 .text.setup_board_part2
                0x00000000eff59bc8       0x1c common/built-in.o
 .text.initf_dm
                0x00000000eff59be4        0x8 common/built-in.o
 .text.arch_cpu_init_dm
                0x00000000eff59bec        0x8 common/built-in.o
                0x00000000eff59bec                arch_cpu_init_dm
 .text.jump_to_copy
                0x00000000eff59bf4       0x44 common/built-in.o
 .text.setup_reloc
                0x00000000eff59c38       0x5c common/built-in.o
 .text.reloc_fdt
                0x00000000eff59c94       0x64 common/built-in.o
 .text.reserve_board
                0x00000000eff59cf8       0x6c common/built-in.o
 .text.announce_dram_init
                0x00000000eff59d64       0x34 common/built-in.o
 .text.init_func_spi
                0x00000000eff59d98       0x40 common/built-in.o
 .text.init_func_i2c
                0x00000000eff59dd8       0x40 common/built-in.o
 .text.init_baud_rate
                0x00000000eff59e18       0x48 common/built-in.o
 .text.initf_bootstage
                0x00000000eff59e60       0x34 common/built-in.o
 .text.reserve_arch
                0x00000000eff59e94        0x8 common/built-in.o
                0x00000000eff59e94                reserve_arch
 .text.display_text_info
                0x00000000eff59e9c        0x8 common/built-in.o
 .text.dram_init_banksize
                0x00000000eff59ea4        0x8 common/built-in.o
                0x00000000eff59ea4                dram_init_banksize
 .text.mach_cpu_init
                0x00000000eff59eac        0x8 common/built-in.o
                0x00000000eff59eac                mach_cpu_init
 .text.reserve_video
                0x00000000eff59eb4        0x8 common/built-in.o
 .text.reserve_trace
                0x00000000eff59ebc        0x8 common/built-in.o
 .text.setup_machine
                0x00000000eff59ec4        0x8 common/built-in.o
 .text.reserve_bootstage
                0x00000000eff59ecc        0x8 common/built-in.o
 .text.display_new_sp
                0x00000000eff59ed4        0x8 common/built-in.o
 .text.reloc_bootstage
                0x00000000eff59edc        0x8 common/built-in.o
 .text.initf_console_record
                0x00000000eff59ee4        0x8 common/built-in.o
 .text.show_dram_config
                0x00000000eff59eec       0x4c common/built-in.o
 .text.board_get_usable_ram_top
                0x00000000eff59f38        0xc common/built-in.o
                0x00000000eff59f38                board_get_usable_ram_top
 .text.setup_dest_addr
                0x00000000eff59f44       0x84 common/built-in.o
 .text.reserve_stacks
                0x00000000eff59fc8       0x48 common/built-in.o
 .text.board_init_f
                0x00000000eff5a010       0x38 common/built-in.o
                0x00000000eff5a010                board_init_f
 .text.bootstage_relocate
                0x00000000eff5a048        0x8 common/built-in.o
 .text.initr_reloc
                0x00000000eff5a050       0x14 common/built-in.o
 .text.initr_barrier
                0x00000000eff5a064       0x10 common/built-in.o
 .text.power_init_board
                0x00000000eff5a074        0x8 common/built-in.o
                0x00000000eff5a074                power_init_board
 .text.initr_spi
                0x00000000eff5a07c        0x8 common/built-in.o
 .text.run_main_loop
                0x00000000eff5a084       0x28 common/built-in.o
 .text.initr_net
                0x00000000eff5a0ac       0x38 common/built-in.o
 .text.initr_ethaddr
                0x00000000eff5a0e4       0x54 common/built-in.o
 .text.initr_jumptable
                0x00000000eff5a138       0x30 common/built-in.o
 .text.initr_pci
                0x00000000eff5a168       0x30 common/built-in.o
 .text.initr_env
                0x00000000eff5a198       0x48 common/built-in.o
 .text.initr_addr_map
                0x00000000eff5a1e0       0x30 common/built-in.o
 .text.initr_trap
                0x00000000eff5a210       0x34 common/built-in.o
 .text.initr_serial
                0x00000000eff5a244       0x30 common/built-in.o
 .text.initr_bootstage
                0x00000000eff5a274       0x34 common/built-in.o
 .text.initr_malloc
                0x00000000eff5a2a8       0x44 common/built-in.o
 .text.initr_unlock_ram_in_cache
                0x00000000eff5a2ec       0x30 common/built-in.o
 .text.initr_trace
                0x00000000eff5a31c        0x8 common/built-in.o
 .text.initr_console_record
                0x00000000eff5a324        0x8 common/built-in.o
 .text.initr_announce
                0x00000000eff5a32c        0x8 common/built-in.o
 .text.board_flash_wp_on
                0x00000000eff5a334        0x8 common/built-in.o
                0x00000000eff5a334                board_flash_wp_on
 .text.initr_flash
                0x00000000eff5a33c       0x80 common/built-in.o
 .text.initr_secondary_cpu
                0x00000000eff5a3bc       0x30 common/built-in.o
 .text.initr_reloc_global_data
                0x00000000eff5a3ec       0x58 common/built-in.o
 .text.board_init_r
                0x00000000eff5a444       0x3c common/built-in.o
                0x00000000eff5a444                board_init_r
 .text.show_board_info
                0x00000000eff5a480       0x2c common/built-in.o
                0x00000000eff5a480                show_board_info
 .text.bootm_find_images
                0x00000000eff5a4ac       0xd8 common/built-in.o
                0x00000000eff5a4ac                bootm_find_images
 .text.bootm_decomp_image
                0x00000000eff5a584      0x154 common/built-in.o
                0x00000000eff5a584                bootm_decomp_image
 .text.bootm_disable_interrupts
                0x00000000eff5a6d8       0x38 common/built-in.o
                0x00000000eff5a6d8                bootm_disable_interrupts
 .text.do_bootm_states
                0x00000000eff5a710      0x85c common/built-in.o
                0x00000000eff5a710                do_bootm_states
 .text.copy_args
                0x00000000eff5af6c       0x74 common/built-in.o
 .text.do_bootm_rtems
                0x00000000eff5afe0       0x84 common/built-in.o
 .text.do_bootm_plan9
                0x00000000eff5b064       0xe0 common/built-in.o
 .text.do_bootm_standalone
                0x00000000eff5b144       0x7c common/built-in.o
 .text.do_bootm_qnxelf
                0x00000000eff5b1c0       0xb8 common/built-in.o
 .text.do_bootm_netbsd
                0x00000000eff5b278      0x138 common/built-in.o
 .text.do_bootvx_fdt
                0x00000000eff5b3b0      0x118 common/built-in.o
                0x00000000eff5b3b0                do_bootvx_fdt
 .text.do_bootm_vxworks
                0x00000000eff5b4c8       0x68 common/built-in.o
 .text.boot_selected_os
                0x00000000eff5b530       0x7c common/built-in.o
                0x00000000eff5b530                boot_selected_os
 .text.bootm_os_get_boot_func
                0x00000000eff5b5ac       0x38 common/built-in.o
                0x00000000eff5b5ac                bootm_os_get_boot_func
 .text.of_bus_default_map
                0x00000000eff5b5e4       0xc0 common/built-in.o
 .text.fdt_support_default_count_cells
                0x00000000eff5b6a4       0x78 common/built-in.o
                0x00000000eff5b6a4                fdt_support_default_count_cells
 .text.fdt_fixup_stdout
                0x00000000eff5b71c       0xf0 common/built-in.o
 .text.of_bus_default_translate
                0x00000000eff5b80c       0x90 common/built-in.o
 .text.fdt_getprop_u32_default_node
                0x00000000eff5b89c       0x68 common/built-in.o
                0x00000000eff5b89c                fdt_getprop_u32_default_node
 .text.fdt_getprop_u32_default
                0x00000000eff5b904       0x5c common/built-in.o
                0x00000000eff5b904                fdt_getprop_u32_default
 .text.fdt_find_and_setprop
                0x00000000eff5b960       0x90 common/built-in.o
                0x00000000eff5b960                fdt_find_and_setprop
 .text.fdt_find_or_add_subnode
                0x00000000eff5b9f0       0x78 common/built-in.o
                0x00000000eff5b9f0                fdt_find_or_add_subnode
 .text.fdt_root
                0x00000000eff5ba68       0x98 common/built-in.o
                0x00000000eff5ba68                fdt_root
 .text.fdt_initrd
                0x00000000eff5bb00      0x1cc common/built-in.o
                0x00000000eff5bb00                fdt_initrd
 .text.fdt_chosen
                0x00000000eff5bccc       0xd4 common/built-in.o
                0x00000000eff5bccc                fdt_chosen
 .text.do_fixup_by_path
                0x00000000eff5bda0       0x54 common/built-in.o
                0x00000000eff5bda0                do_fixup_by_path
 .text.do_fixup_by_prop
                0x00000000eff5bdf4       0xd8 common/built-in.o
                0x00000000eff5bdf4                do_fixup_by_prop
 .text.do_fixup_by_prop_u32
                0x00000000eff5becc       0x40 common/built-in.o
                0x00000000eff5becc                do_fixup_by_prop_u32
 .text.do_fixup_by_compat
                0x00000000eff5bf0c       0xc0 common/built-in.o
                0x00000000eff5bf0c                do_fixup_by_compat
 .text.do_fixup_by_compat_u32
                0x00000000eff5bfcc       0x40 common/built-in.o
                0x00000000eff5bfcc                do_fixup_by_compat_u32
 .text.fdt_fixup_memory_banks
                0x00000000eff5c00c      0x1ec common/built-in.o
                0x00000000eff5c00c                fdt_fixup_memory_banks
 .text.fdt_fixup_memory
                0x00000000eff5c1f8       0x48 common/built-in.o
                0x00000000eff5c1f8                fdt_fixup_memory
 .text.fdt_fixup_ethernet
                0x00000000eff5c240      0x1c4 common/built-in.o
                0x00000000eff5c240                fdt_fixup_ethernet
 .text.fdt_shrink_to_minimum
                0x00000000eff5c404       0xe8 common/built-in.o
                0x00000000eff5c404                fdt_shrink_to_minimum
 .text.fdt_pci_dma_ranges
                0x00000000eff5c4ec      0x16c common/built-in.o
                0x00000000eff5c4ec                fdt_pci_dma_ranges
 .text.fdt_translate_address
                0x00000000eff5c658      0x288 common/built-in.o
                0x00000000eff5c658                fdt_translate_address
 .text.fdt_node_offset_by_compat_reg
                0x00000000eff5c8e0       0xb4 common/built-in.o
                0x00000000eff5c8e0                fdt_node_offset_by_compat_reg
 .text.fdt_verify_alias_address
                0x00000000eff5c994       0xe0 common/built-in.o
                0x00000000eff5c994                fdt_verify_alias_address
 .text.miiphy_get_dev_by_name
                0x00000000eff5ca74       0x78 common/built-in.o
                0x00000000eff5ca74                miiphy_get_dev_by_name
 .text.miiphy_init
                0x00000000eff5caec       0x44 common/built-in.o
                0x00000000eff5caec                miiphy_init
 .text.mdio_alloc
                0x00000000eff5cb30       0x50 common/built-in.o
                0x00000000eff5cb30                mdio_alloc
 .text.mdio_register
                0x00000000eff5cb80       0xac common/built-in.o
                0x00000000eff5cb80                mdio_register
 .text.mdio_list_devices
                0x00000000eff5cc2c       0xb4 common/built-in.o
                0x00000000eff5cc2c                mdio_list_devices
 .text.miiphy_set_current_dev
                0x00000000eff5cce0       0x58 common/built-in.o
                0x00000000eff5cce0                miiphy_set_current_dev
 .text.miiphy_get_active_dev
                0x00000000eff5cd38       0x78 common/built-in.o
 .text.mdio_get_current_dev
                0x00000000eff5cdb0       0x34 common/built-in.o
                0x00000000eff5cdb0                mdio_get_current_dev
 .text.mdio_phydev_for_ethname
                0x00000000eff5cde4       0xa8 common/built-in.o
                0x00000000eff5cde4                mdio_phydev_for_ethname
 .text.miiphy_get_current_dev
                0x00000000eff5ce8c       0x44 common/built-in.o
                0x00000000eff5ce8c                miiphy_get_current_dev
 .text.miiphy_read
                0x00000000eff5ced0       0x60 common/built-in.o
                0x00000000eff5ced0                miiphy_read
 .text.miiphy_write
                0x00000000eff5cf30       0x54 common/built-in.o
                0x00000000eff5cf30                miiphy_write
 .text.miiphy_listdev
                0x00000000eff5cf84       0x80 common/built-in.o
                0x00000000eff5cf84                miiphy_listdev
 .text.miiphy_info
                0x00000000eff5d004       0xac common/built-in.o
                0x00000000eff5d004                miiphy_info
 .text.miiphy_is_1000base_x
                0x00000000eff5d0b0       0x5c common/built-in.o
                0x00000000eff5d0b0                miiphy_is_1000base_x
 .text.miiphy_speed
                0x00000000eff5d10c      0x130 common/built-in.o
                0x00000000eff5d10c                miiphy_speed
 .text.miiphy_duplex
                0x00000000eff5d23c      0x158 common/built-in.o
                0x00000000eff5d23c                miiphy_duplex
 .text.usb_set_maxpacket_ep
                0x00000000eff5d394       0x64 common/built-in.o
 .text.usb_stop
                0x00000000eff5d3f8       0x70 common/built-in.o
                0x00000000eff5d3f8                usb_stop
 .text.usb_disable_asynch
                0x00000000eff5d468       0x44 common/built-in.o
                0x00000000eff5d468                usb_disable_asynch
 .text.usb_control_msg
                0x00000000eff5d4ac       0xec common/built-in.o
                0x00000000eff5d4ac                usb_control_msg
 .text.usb_get_descriptor
                0x00000000eff5d598       0x6c common/built-in.o
 .text.get_descriptor_len
                0x00000000eff5d604       0xa0 common/built-in.o
 .text.usb_setup_descriptor
                0x00000000eff5d6a4       0xfc common/built-in.o
 .text.usb_get_string
                0x00000000eff5d7a0       0x94 common/built-in.o
 .text.usb_string_sub
                0x00000000eff5d834      0x124 common/built-in.o
 .text.usb_bulk_msg
                0x00000000eff5d958       0x9c common/built-in.o
                0x00000000eff5d958                usb_bulk_msg
 .text.usb_maxpacket
                0x00000000eff5d9f4       0x2c common/built-in.o
                0x00000000eff5d9f4                usb_maxpacket
 .text.usb_clear_halt
                0x00000000eff5da20       0xa8 common/built-in.o
                0x00000000eff5da20                usb_clear_halt
 .text.usb_get_configuration_len
                0x00000000eff5dac8       0x90 common/built-in.o
                0x00000000eff5dac8                usb_get_configuration_len
 .text.usb_get_configuration_no
                0x00000000eff5db58       0x34 common/built-in.o
                0x00000000eff5db58                usb_get_configuration_no
 .text.usb_set_interface
                0x00000000eff5db8c       0xd8 common/built-in.o
                0x00000000eff5db8c                usb_set_interface
 .text.usb_string
                0x00000000eff5dc64      0x128 common/built-in.o
                0x00000000eff5dc64                usb_string
 .text.usb_get_dev_index
                0x00000000eff5dd8c       0x48 common/built-in.o
                0x00000000eff5dd8c                usb_get_dev_index
 .text.usb_alloc_new_device
                0x00000000eff5ddd4       0xb0 common/built-in.o
                0x00000000eff5ddd4                usb_alloc_new_device
 .text.usb_free_device
                0x00000000eff5de84       0x60 common/built-in.o
                0x00000000eff5de84                usb_free_device
 .text.usb_alloc_device
                0x00000000eff5dee4        0x8 common/built-in.o
                0x00000000eff5dee4                usb_alloc_device
 .text.usb_select_config
                0x00000000eff5deec      0x49c common/built-in.o
                0x00000000eff5deec                usb_select_config
 .text.usb_setup_device
                0x00000000eff5e388      0x104 common/built-in.o
                0x00000000eff5e388                usb_setup_device
 .text.usb_new_device
                0x00000000eff5e48c       0x58 common/built-in.o
                0x00000000eff5e48c                usb_new_device
 .text.usb_init
                0x00000000eff5e4e4      0x154 common/built-in.o
                0x00000000eff5e4e4                usb_init
 .text.usb_device_has_child_on_port
                0x00000000eff5e638       0x1c common/built-in.o
                0x00000000eff5e638                usb_device_has_child_on_port
 .text.usb_find_usb2_hub_address_port
                0x00000000eff5e654       0x78 common/built-in.o
                0x00000000eff5e654                usb_find_usb2_hub_address_port
 .text.usb_set_port_feature
                0x00000000eff5e6cc       0x60 common/built-in.o
 .text.usb_clear_port_feature
                0x00000000eff5e72c       0x60 common/built-in.o
 .text.usb_get_hub_descriptor
                0x00000000eff5e78c       0x78 common/built-in.o
 .text.usb_hub_reset_devices
                0x00000000eff5e804        0x4 common/built-in.o
                0x00000000eff5e804                usb_hub_reset_devices
 .text.usb_get_port_status
                0x00000000eff5e808       0x64 common/built-in.o
                0x00000000eff5e808                usb_get_port_status
 .text.usb_hub_reset
                0x00000000eff5e86c       0x44 common/built-in.o
                0x00000000eff5e86c                usb_hub_reset
 .text.usb_hub_port_connect_change
                0x00000000eff5e8b0      0x1f8 common/built-in.o
                0x00000000eff5e8b0                usb_hub_port_connect_change
 .text.usb_hub_configure
                0x00000000eff5eaa8      0x5b4 common/built-in.o
 .text.usb_hub_probe
                0x00000000eff5f05c       0x54 common/built-in.o
                0x00000000eff5f05c                usb_hub_probe
 .text.usb_stor_irq
                0x00000000eff5f0b0       0x20 common/built-in.o
 .text.usb_stor_BBB_reset
                0x00000000eff5f0d0      0x130 common/built-in.o
 .text.usb_stor_CB_reset
                0x00000000eff5f200      0x104 common/built-in.o
 .text.usb_stor_BBB_clear_endpt_stall.isra.3
                0x00000000eff5f304       0x60 common/built-in.o
 .text.usb_stor_BBB_transport
                0x00000000eff5f364      0x2c4 common/built-in.o
 .text.usb_stor_CB_comdat
                0x00000000eff5f628      0x204 common/built-in.o
 .text.usb_stor_CBI_get_status.isra.5
                0x00000000eff5f82c       0xf4 common/built-in.o
 .text.usb_stor_CB_transport
                0x00000000eff5f920      0x244 common/built-in.o
 .text.usb_request_sense.constprop.11
                0x00000000eff5fb64       0x94 common/built-in.o
 .text.usb_stor_read
                0x00000000eff5fbf8      0x15c common/built-in.o
 .text.usb_stor_write
                0x00000000eff5fd54      0x15c common/built-in.o
 .text.usb_stor_info
                0x00000000eff5feb0       0x88 common/built-in.o
                0x00000000eff5feb0                usb_stor_info
 .text.usb_stor_reset
                0x00000000eff5ff38       0x38 common/built-in.o
                0x00000000eff5ff38                usb_stor_reset
 .text.usb_storage_probe
                0x00000000eff5ff70      0x230 common/built-in.o
                0x00000000eff5ff70                usb_storage_probe
 .text.usb_stor_get_info
                0x00000000eff601a0      0x348 common/built-in.o
                0x00000000eff601a0                usb_stor_get_info
 .text.usb_stor_scan
                0x00000000eff604e8      0x1d0 common/built-in.o
                0x00000000eff604e8                usb_stor_scan
 .text.flash_protect
                0x00000000eff606b8       0xd4 common/built-in.o
                0x00000000eff606b8                flash_protect
 .text.addr2info
                0x00000000eff6078c       0x70 common/built-in.o
                0x00000000eff6078c                addr2info
 .text.flash_write
                0x00000000eff607fc      0x158 common/built-in.o
                0x00000000eff607fc                flash_write
 .text.flash_perror
                0x00000000eff60954       0xe8 common/built-in.o
                0x00000000eff60954                flash_perror
 .text.delete_char.part.0
                0x00000000eff60a3c       0xec common/built-in.o
 .text.cread_add_char
                0x00000000eff60b28      0x100 common/built-in.o
 .text.cli_readline_into_buffer
                0x00000000eff60c28      0x9c8 common/built-in.o
                0x00000000eff60c28                cli_readline_into_buffer
 .text.cli_readline
                0x00000000eff615f0       0x3c common/built-in.o
                0x00000000eff615f0                cli_readline
 .text.hwconfig_parse
                0x00000000eff6162c      0x14c common/built-in.o
 .text.__hwconfig
                0x00000000eff61778       0xfc common/built-in.o
 .text.hwconfig_f
                0x00000000eff61874       0x30 common/built-in.o
                0x00000000eff61874                hwconfig_f
 .text.hwconfig_sub_f
                0x00000000eff618a4       0x64 common/built-in.o
                0x00000000eff618a4                hwconfig_sub_f
 .text.hwconfig_subarg_f
                0x00000000eff61908       0x64 common/built-in.o
                0x00000000eff61908                hwconfig_subarg_f
 .text.hwconfig_subarg_cmp_f
                0x00000000eff6196c       0x70 common/built-in.o
                0x00000000eff6196c                hwconfig_subarg_cmp_f
 .text.console_setfile
                0x00000000eff619dc       0xd0 common/built-in.o
 .text.fgetc    0x00000000eff61aac       0x50 common/built-in.o
                0x00000000eff61aac                fgetc
 .text.getc     0x00000000eff61afc       0x50 common/built-in.o
                0x00000000eff61afc                getc
 .text.ftstc    0x00000000eff61b4c       0x50 common/built-in.o
                0x00000000eff61b4c                ftstc
 .text.tstc     0x00000000eff61b9c       0x50 common/built-in.o
                0x00000000eff61b9c                tstc
 .text.fputc    0x00000000eff61bec       0x48 common/built-in.o
                0x00000000eff61bec                fputc
 .text.putc     0x00000000eff61c34       0x54 common/built-in.o
                0x00000000eff61c34                putc
 .text.fputs    0x00000000eff61c88       0x48 common/built-in.o
                0x00000000eff61c88                fputs
 .text.puts     0x00000000eff61cd0       0x54 common/built-in.o
                0x00000000eff61cd0                puts
 .text.ctrlc    0x00000000eff61d24       0x78 common/built-in.o
                0x00000000eff61d24                ctrlc
 .text.confirm_yesno
                0x00000000eff61d9c       0xe8 common/built-in.o
                0x00000000eff61d9c                confirm_yesno
 .text.had_ctrlc
                0x00000000eff61e84       0x34 common/built-in.o
                0x00000000eff61e84                had_ctrlc
 .text.clear_ctrlc
                0x00000000eff61eb8       0x38 common/built-in.o
                0x00000000eff61eb8                clear_ctrlc
 .text.search_device
                0x00000000eff61ef0       0x58 common/built-in.o
                0x00000000eff61ef0                search_device
 .text.console_assign
                0x00000000eff61f48       0x74 common/built-in.o
                0x00000000eff61f48                console_assign
 .text.on_console
                0x00000000eff61fbc       0xd4 common/built-in.o
 .text.console_init_f
                0x00000000eff62090       0x10 common/built-in.o
                0x00000000eff62090                console_init_f
 .text.stdio_print_current_devices
                0x00000000eff620a0       0xb8 common/built-in.o
                0x00000000eff620a0                stdio_print_current_devices
 .text.console_init_r
                0x00000000eff62158       0xf8 common/built-in.o
                0x00000000eff62158                console_init_r
 .text.sbrk     0x00000000eff62250       0x7c common/built-in.o
                0x00000000eff62250                sbrk
 .text.mem_malloc_init
                0x00000000eff622cc       0x50 common/built-in.o
                0x00000000eff622cc                mem_malloc_init
 .text.malloc_trim
                0x00000000eff6231c       0xd8 common/built-in.o
                0x00000000eff6231c                malloc_trim
 .text.free     0x00000000eff623f4      0x27c common/built-in.o
                0x00000000eff623f4                free
 .text.malloc   0x00000000eff62670      0x654 common/built-in.o
                0x00000000eff62670                malloc
 .text.calloc   0x00000000eff62cc4       0xf8 common/built-in.o
                0x00000000eff62cc4                calloc
 .text.realloc  0x00000000eff62dbc      0x464 common/built-in.o
                0x00000000eff62dbc                realloc
 .text.memalign
                0x00000000eff63220      0x190 common/built-in.o
                0x00000000eff63220                memalign
 .text.initf_malloc
                0x00000000eff633b0        0x8 common/built-in.o
                0x00000000eff633b0                initf_malloc
 .text.on_loadaddr
                0x00000000eff633b8       0x54 common/built-in.o
 .text.image_check_hcrc
                0x00000000eff6340c       0x68 common/built-in.o
                0x00000000eff6340c                image_check_hcrc
 .text.image_check_dcrc
                0x00000000eff63474       0x50 common/built-in.o
                0x00000000eff63474                image_check_dcrc
 .text.image_multi_count
                0x00000000eff634c4       0x20 common/built-in.o
                0x00000000eff634c4                image_multi_count
 .text.image_multi_getimg
                0x00000000eff634e4       0x9c common/built-in.o
                0x00000000eff634e4                image_multi_getimg
 .text.env_get_bootm_low
                0x00000000eff63580       0x50 common/built-in.o
                0x00000000eff63580                env_get_bootm_low
 .text.env_get_bootm_size
                0x00000000eff635d0       0x94 common/built-in.o
                0x00000000eff635d0                env_get_bootm_size
 .text.env_get_bootm_mapsize
                0x00000000eff63664       0x5c common/built-in.o
                0x00000000eff63664                env_get_bootm_mapsize
 .text.memmove_wd
                0x00000000eff636c0       0x34 common/built-in.o
                0x00000000eff636c0                memmove_wd
 .text.genimg_print_size
                0x00000000eff636f4       0x48 common/built-in.o
                0x00000000eff636f4                genimg_print_size
 .text.genimg_print_time
                0x00000000eff6373c       0x50 common/built-in.o
                0x00000000eff6373c                genimg_print_time
 .text.get_table_entry
                0x00000000eff6378c       0x24 common/built-in.o
                0x00000000eff6378c                get_table_entry
 .text.get_table_entry_name
                0x00000000eff637b0       0x48 common/built-in.o
                0x00000000eff637b0                get_table_entry_name
 .text.genimg_get_os_name
                0x00000000eff637f8       0x38 common/built-in.o
                0x00000000eff637f8                genimg_get_os_name
 .text.genimg_get_arch_name
                0x00000000eff63830       0x38 common/built-in.o
                0x00000000eff63830                genimg_get_arch_name
 .text.genimg_get_type_name
                0x00000000eff63868       0x38 common/built-in.o
                0x00000000eff63868                genimg_get_type_name
 .text.genimg_get_comp_name
                0x00000000eff638a0       0x38 common/built-in.o
                0x00000000eff638a0                genimg_get_comp_name
 .text.image_print_contents
                0x00000000eff638d8      0x198 common/built-in.o
                0x00000000eff638d8                image_print_contents
 .text.get_table_entry_id
                0x00000000eff63a70       0x6c common/built-in.o
                0x00000000eff63a70                get_table_entry_id
 .text.genimg_get_os_id
                0x00000000eff63adc       0x38 common/built-in.o
                0x00000000eff63adc                genimg_get_os_id
 .text.genimg_get_arch_id
                0x00000000eff63b14       0x38 common/built-in.o
                0x00000000eff63b14                genimg_get_arch_id
 .text.genimg_get_type_id
                0x00000000eff63b4c       0x38 common/built-in.o
                0x00000000eff63b4c                genimg_get_type_id
 .text.genimg_get_comp_id
                0x00000000eff63b84       0x38 common/built-in.o
                0x00000000eff63b84                genimg_get_comp_id
 .text.genimg_get_kernel_addr_fit
                0x00000000eff63bbc       0x94 common/built-in.o
                0x00000000eff63bbc                genimg_get_kernel_addr_fit
 .text.genimg_get_format
                0x00000000eff63c50       0x50 common/built-in.o
                0x00000000eff63c50                genimg_get_format
 .text.genimg_has_config
                0x00000000eff63ca0       0x10 common/built-in.o
                0x00000000eff63ca0                genimg_has_config
 .text.boot_get_ramdisk
                0x00000000eff63cb0      0x33c common/built-in.o
                0x00000000eff63cb0                boot_get_ramdisk
 .text.boot_ramdisk_high
                0x00000000eff63fec      0x174 common/built-in.o
                0x00000000eff63fec                boot_ramdisk_high
 .text.boot_get_setup
                0x00000000eff64160       0x2c common/built-in.o
                0x00000000eff64160                boot_get_setup
 .text.boot_get_loadable
                0x00000000eff6418c      0x17c common/built-in.o
                0x00000000eff6418c                boot_get_loadable
 .text.boot_get_cmdline
                0x00000000eff64308       0xa0 common/built-in.o
                0x00000000eff64308                boot_get_cmdline
 .text.boot_get_kbd
                0x00000000eff643a8       0x80 common/built-in.o
                0x00000000eff643a8                boot_get_kbd
 .text.image_setup_linux
                0x00000000eff64428       0xa0 common/built-in.o
                0x00000000eff64428                image_setup_linux
 .text.fdt_error
                0x00000000eff644c8       0x44 common/built-in.o
 .text.boot_fdt_add_mem_rsv_regions
                0x00000000eff6450c       0xb8 common/built-in.o
                0x00000000eff6450c                boot_fdt_add_mem_rsv_regions
 .text.boot_relocate_fdt
                0x00000000eff645c4      0x1b8 common/built-in.o
                0x00000000eff645c4                boot_relocate_fdt
 .text.boot_get_fdt
                0x00000000eff6477c      0x38c common/built-in.o
                0x00000000eff6477c                boot_get_fdt
 .text.image_setup_libfdt
                0x00000000eff64b08      0x15c common/built-in.o
                0x00000000eff64b08                image_setup_libfdt
 .text.fit_image_get_address
                0x00000000eff64c64       0x7c common/built-in.o
 .text.fit_parse_conf
                0x00000000eff64ce0       0x80 common/built-in.o
                0x00000000eff64ce0                fit_parse_conf
 .text.fit_parse_subimage
                0x00000000eff64d60       0x80 common/built-in.o
                0x00000000eff64d60                fit_parse_subimage
 .text.fit_get_desc
                0x00000000eff64de0       0x44 common/built-in.o
                0x00000000eff64de0                fit_get_desc
 .text.fit_get_timestamp
                0x00000000eff64e24       0x64 common/built-in.o
                0x00000000eff64e24                fit_get_timestamp
 .text.fit_image_get_node
                0x00000000eff64e88       0x54 common/built-in.o
                0x00000000eff64e88                fit_image_get_node
 .text.fit_image_get_os
                0x00000000eff64edc       0x5c common/built-in.o
                0x00000000eff64edc                fit_image_get_os
 .text.fit_image_get_arch
                0x00000000eff64f38       0x5c common/built-in.o
                0x00000000eff64f38                fit_image_get_arch
 .text.fit_image_get_type
                0x00000000eff64f94       0x5c common/built-in.o
                0x00000000eff64f94                fit_image_get_type
 .text.fit_image_get_comp
                0x00000000eff64ff0       0x5c common/built-in.o
                0x00000000eff64ff0                fit_image_get_comp
 .text.fit_image_get_load
                0x00000000eff6504c       0x34 common/built-in.o
                0x00000000eff6504c                fit_image_get_load
 .text.fit_image_get_entry
                0x00000000eff65080       0x34 common/built-in.o
                0x00000000eff65080                fit_image_get_entry
 .text.fit_image_get_data
                0x00000000eff650b4       0x60 common/built-in.o
                0x00000000eff650b4                fit_image_get_data
 .text.fit_image_hash_get_algo
                0x00000000eff65114       0x44 common/built-in.o
                0x00000000eff65114                fit_image_hash_get_algo
 .text.fit_image_hash_get_value
                0x00000000eff65158       0x60 common/built-in.o
                0x00000000eff65158                fit_image_hash_get_value
 .text.fit_image_print_data
                0x00000000eff651b8      0x174 common/built-in.o
 .text.fit_image_print
                0x00000000eff6532c      0x39c common/built-in.o
                0x00000000eff6532c                fit_image_print
 .text.fit_get_end
                0x00000000eff656c8        0xc common/built-in.o
                0x00000000eff656c8                fit_get_end
 .text.calculate_hash
                0x00000000eff656d4      0x108 common/built-in.o
                0x00000000eff656d4                calculate_hash
 .text.fit_image_verify
                0x00000000eff657dc      0x22c common/built-in.o
                0x00000000eff657dc                fit_image_verify
 .text.fit_all_image_verify
                0x00000000eff65a08      0x10c common/built-in.o
                0x00000000eff65a08                fit_all_image_verify
 .text.fit_image_check_os
                0x00000000eff65b14       0x54 common/built-in.o
                0x00000000eff65b14                fit_image_check_os
 .text.fit_image_check_arch
                0x00000000eff65b68       0x6c common/built-in.o
                0x00000000eff65b68                fit_image_check_arch
 .text.fit_image_check_type
                0x00000000eff65bd4       0x54 common/built-in.o
                0x00000000eff65bd4                fit_image_check_type
 .text.fit_image_check_comp
                0x00000000eff65c28       0x54 common/built-in.o
                0x00000000eff65c28                fit_image_check_comp
 .text.fit_check_format
                0x00000000eff65c7c       0x7c common/built-in.o
                0x00000000eff65c7c                fit_check_format
 .text.fit_conf_get_node
                0x00000000eff65cf8       0xec common/built-in.o
                0x00000000eff65cf8                fit_conf_get_node
 .text.fit_conf_get_prop_node_count
                0x00000000eff65de4       0x2c common/built-in.o
                0x00000000eff65de4                fit_conf_get_prop_node_count
 .text.fit_conf_get_prop_node_index
                0x00000000eff65e10       0x4c common/built-in.o
                0x00000000eff65e10                fit_conf_get_prop_node_index
 .text.fit_conf_get_prop_node
                0x00000000eff65e5c       0x30 common/built-in.o
                0x00000000eff65e5c                fit_conf_get_prop_node
 .text.fit_conf_print
                0x00000000eff65e8c      0x1c0 common/built-in.o
                0x00000000eff65e8c                fit_conf_print
 .text.fit_print_contents
                0x00000000eff6604c      0x248 common/built-in.o
                0x00000000eff6604c                fit_print_contents
 .text.fit_get_node_from_config
                0x00000000eff66294       0x68 common/built-in.o
                0x00000000eff66294                fit_get_node_from_config
 .text.fit_image_load
                0x00000000eff662fc      0x56c common/built-in.o
                0x00000000eff662fc                fit_image_load
 .text.boot_get_setup_fit
                0x00000000eff66868       0x7c common/built-in.o
                0x00000000eff66868                boot_get_setup_fit
 .text.boot_get_fdt_fit
                0x00000000eff668e4      0x17c common/built-in.o
                0x00000000eff668e4                boot_get_fdt_fit
 .text.get_effective_memsize
                0x00000000eff66a60        0xc common/built-in.o
                0x00000000eff66a60                get_effective_memsize
 .text.stdio_serial_tstc
                0x00000000eff66a6c       0x2c common/built-in.o
 .text.stdio_serial_getc
                0x00000000eff66a98       0x2c common/built-in.o
 .text.stdio_serial_puts
                0x00000000eff66ac4       0x30 common/built-in.o
 .text.stdio_serial_putc
                0x00000000eff66af4       0x30 common/built-in.o
 .text.stdio_get_list
                0x00000000eff66b24       0x34 common/built-in.o
                0x00000000eff66b24                stdio_get_list
 .text.stdio_get_by_name
                0x00000000eff66b58       0x74 common/built-in.o
                0x00000000eff66b58                stdio_get_by_name
 .text.stdio_clone
                0x00000000eff66bcc       0x70 common/built-in.o
                0x00000000eff66bcc                stdio_clone
 .text.stdio_register_dev
                0x00000000eff66c3c       0x70 common/built-in.o
                0x00000000eff66c3c                stdio_register_dev
 .text.stdio_register
                0x00000000eff66cac       0x30 common/built-in.o
                0x00000000eff66cac                stdio_register
 .text.stdio_init_tables
                0x00000000eff66cdc       0x40 common/built-in.o
                0x00000000eff66cdc                stdio_init_tables
 .text.stdio_add_devices
                0x00000000eff66d1c       0x84 common/built-in.o
                0x00000000eff66d1c                stdio_add_devices
 .text.run_command
                0x00000000eff66da0       0x40 common/built-in.o
                0x00000000eff66da0                run_command
 .text.run_command_list
                0x00000000eff66de0       0x98 common/built-in.o
                0x00000000eff66de0                run_command_list
 .text.do_run   0x00000000eff66e78       0x88 common/built-in.o
                0x00000000eff66e78                do_run
 .text.cli_loop
                0x00000000eff66f00       0x28 common/built-in.o
                0x00000000eff66f00                cli_loop
 .text.cli_init
                0x00000000eff66f28       0x2c common/built-in.o
                0x00000000eff66f28                cli_init
 .text.find_cmd_tbl
                0x00000000eff66f54       0xc4 common/built-in.o
                0x00000000eff66f54                find_cmd_tbl
 .text.find_cmd
                0x00000000eff67018       0x48 common/built-in.o
                0x00000000eff67018                find_cmd
 .text.cmd_usage
                0x00000000eff67060       0x70 common/built-in.o
                0x00000000eff67060                cmd_usage
 .text._do_help
                0x00000000eff670d0      0x1b4 common/built-in.o
                0x00000000eff670d0                _do_help
 .text.cmd_get_data_size
                0x00000000eff67284       0x7c common/built-in.o
                0x00000000eff67284                cmd_get_data_size
 .text.cmd_process
                0x00000000eff67300      0x108 common/built-in.o
                0x00000000eff67300                cmd_process
 .text.hex1_bin
                0x00000000eff67408       0x48 common/built-in.o
 .text.hex2_bin
                0x00000000eff67450       0x50 common/built-in.o
 .text.srec_decode
                0x00000000eff674a0      0x26c common/built-in.o
                0x00000000eff674a0                srec_decode
 .text.CYGACC_COMM_IF_GETC_TIMEOUT.isra.0
                0x00000000eff6770c       0x6c common/built-in.o
 .text.xyzModem_flush
                0x00000000eff67778       0x2c common/built-in.o
 .text.xyzModem_get_hdr
                0x00000000eff677a4      0x274 common/built-in.o
 .text.xyzModem_stream_open
                0x00000000eff67a18      0x264 common/built-in.o
                0x00000000eff67a18                xyzModem_stream_open
 .text.xyzModem_stream_read
                0x00000000eff67c7c      0x278 common/built-in.o
                0x00000000eff67c7c                xyzModem_stream_read
 .text.xyzModem_stream_close
                0x00000000eff67ef4       0x58 common/built-in.o
                0x00000000eff67ef4                xyzModem_stream_close
 .text.xyzModem_stream_terminate
                0x00000000eff67f4c       0xb4 common/built-in.o
                0x00000000eff67f4c                xyzModem_stream_terminate
 .text.xyzModem_error
                0x00000000eff68000       0x94 common/built-in.o
                0x00000000eff68000                xyzModem_error
 .text.dev_print
                0x00000000eff68094      0x1f8 disk/built-in.o
                0x00000000eff68094                dev_print
 .text.part_init
                0x00000000eff6828c       0x70 disk/built-in.o
                0x00000000eff6828c                part_init
 .text.part_print
                0x00000000eff682fc      0x114 disk/built-in.o
                0x00000000eff682fc                part_print
 .text.part_get_info
                0x00000000eff68410       0x88 disk/built-in.o
                0x00000000eff68410                part_get_info
 .text.part_get_info_whole_disk
                0x00000000eff68498       0x64 disk/built-in.o
                0x00000000eff68498                part_get_info_whole_disk
 .text.blk_get_device_by_str
                0x00000000eff684fc      0x168 disk/built-in.o
                0x00000000eff684fc                blk_get_device_by_str
 .text.blk_get_device_part_str
                0x00000000eff68664      0x3cc disk/built-in.o
                0x00000000eff68664                blk_get_device_part_str
 .text.part_set_generic_name
                0x00000000eff68a30       0x94 disk/built-in.o
                0x00000000eff68a30                part_set_generic_name
 .text.test_block_type
                0x00000000eff68ac4       0x9c disk/built-in.o
 .text.print_partition_extended
                0x00000000eff68b60      0x298 disk/built-in.o
 .text.part_print_dos
                0x00000000eff68df8       0x54 disk/built-in.o
                0x00000000eff68df8                part_print_dos
 .text.part_test_dos
                0x00000000eff68e4c       0x98 disk/built-in.o
 .text.part_get_info_extended.constprop.1
                0x00000000eff68ee4      0x2c4 disk/built-in.o
 .text.part_get_info_dos
                0x00000000eff691a8       0x18 disk/built-in.o
                0x00000000eff691a8                part_get_info_dos
 .text.ata_id_n_sectors
                0x00000000eff691c0       0x74 drivers/built-in.o
                0x00000000eff691c0                ata_id_n_sectors
 .text.ata_id_c_string
                0x00000000eff69234       0xb8 drivers/built-in.o
                0x00000000eff69234                ata_id_c_string
 .text.ata_swap_buf_le16
                0x00000000eff692ec       0x28 drivers/built-in.o
                0x00000000eff692ec                ata_swap_buf_le16
 .text.sata_bwrite
                0x00000000eff69314       0x30 drivers/built-in.o
 .text.sata_bread
                0x00000000eff69344       0x30 drivers/built-in.o
 .text.__sata_initialize
                0x00000000eff69374       0xdc drivers/built-in.o
                0x00000000eff69374                sata_initialize
                0x00000000eff69374                __sata_initialize
 .text.__sata_stop
                0x00000000eff69450       0x50 drivers/built-in.o
                0x00000000eff69450                __sata_stop
                0x00000000eff69450                sata_stop
 .text.sil_sata_dump_fis
                0x00000000eff694a0       0xdc drivers/built-in.o
 .text.ata_wait_register
                0x00000000eff6957c       0x6c drivers/built-in.o
 .text.sil_init_port
                0x00000000eff695e8       0x68 drivers/built-in.o
 .text.sil_exec_cmd.constprop.0
                0x00000000eff69650       0xd4 drivers/built-in.o
 .text.sil_read_fis.constprop.1
                0x00000000eff69724       0x74 drivers/built-in.o
 .text.sil_sata_rw_cmd
                0x00000000eff69798      0x16c drivers/built-in.o
 .text.sil_sata_rw_lba28
                0x00000000eff69904       0x6c drivers/built-in.o
 .text.sil_sata_rw_cmd_ext
                0x00000000eff69970      0x184 drivers/built-in.o
 .text.sil_sata_rw_lba48
                0x00000000eff69af4       0x78 drivers/built-in.o
 .text.sata_read
                0x00000000eff69b6c       0x58 drivers/built-in.o
                0x00000000eff69b6c                sata_read
 .text.sata_write
                0x00000000eff69bc4       0xfc drivers/built-in.o
                0x00000000eff69bc4                sata_write
 .text.init_sata
                0x00000000eff69cc0      0x16c drivers/built-in.o
                0x00000000eff69cc0                init_sata
 .text.reset_sata
                0x00000000eff69e2c        0x8 drivers/built-in.o
                0x00000000eff69e2c                reset_sata
 .text.scan_sata
                0x00000000eff69e34      0x698 drivers/built-in.o
                0x00000000eff69e34                scan_sata
 .text.get_desc
                0x00000000eff6a4cc       0x7c drivers/built-in.o
 .text.blk_driver_lookup_type
                0x00000000eff6a548       0x5c drivers/built-in.o
                0x00000000eff6a548                blk_driver_lookup_type
 .text.blk_get_if_type_name
                0x00000000eff6a5a4       0x40 drivers/built-in.o
                0x00000000eff6a5a4                blk_get_if_type_name
 .text.blk_list_part
                0x00000000eff6a5e4       0xb8 drivers/built-in.o
                0x00000000eff6a5e4                blk_list_part
 .text.blk_print_part_devnum
                0x00000000eff6a69c       0x70 drivers/built-in.o
                0x00000000eff6a69c                blk_print_part_devnum
 .text.blk_list_devices
                0x00000000eff6a70c       0x90 drivers/built-in.o
                0x00000000eff6a70c                blk_list_devices
 .text.blk_print_device_num
                0x00000000eff6a79c       0x6c drivers/built-in.o
                0x00000000eff6a79c                blk_print_device_num
 .text.blk_show_device
                0x00000000eff6a808       0xa0 drivers/built-in.o
                0x00000000eff6a808                blk_show_device
 .text.blk_get_devnum_by_type
                0x00000000eff6a8a8       0x58 drivers/built-in.o
                0x00000000eff6a8a8                blk_get_devnum_by_type
 .text.blk_dselect_hwpart
                0x00000000eff6a900       0x68 drivers/built-in.o
                0x00000000eff6a900                blk_dselect_hwpart
 .text.blk_get_devnum_by_typename
                0x00000000eff6a968       0x88 drivers/built-in.o
                0x00000000eff6a968                blk_get_devnum_by_typename
 .text.blk_read_devnum
                0x00000000eff6a9f0       0x7c drivers/built-in.o
                0x00000000eff6a9f0                blk_read_devnum
 .text.blk_write_devnum
                0x00000000eff6aa6c       0x7c drivers/built-in.o
                0x00000000eff6aa6c                blk_write_devnum
 .text.blk_select_hwpart_devnum
                0x00000000eff6aae8       0x6c drivers/built-in.o
                0x00000000eff6aae8                blk_select_hwpart_devnum
 .text.fdt_fixup_crypto_node
                0x00000000eff6ab54      0x214 drivers/built-in.o
                0x00000000eff6ab54                fdt_fixup_crypto_node
 .text.mmc_set_ios
                0x00000000eff6ad68       0x40 drivers/built-in.o
 .text.mmc_set_capacity
                0x00000000eff6ada8       0xd8 drivers/built-in.o
 .text.board_mmc_getwp
                0x00000000eff6ae80        0x8 drivers/built-in.o
                0x00000000eff6ae80                board_mmc_getwp
 .text.mmc_getwp
                0x00000000eff6ae88       0x5c drivers/built-in.o
                0x00000000eff6ae88                mmc_getwp
 .text.board_mmc_getcd
                0x00000000eff6aee4        0x8 drivers/built-in.o
                0x00000000eff6aee4                board_mmc_getcd
 .text.mmc_mode_name
                0x00000000eff6aeec       0x48 drivers/built-in.o
                0x00000000eff6aeec                mmc_mode_name
 .text.mmc_send_cmd
                0x00000000eff6af34       0x30 drivers/built-in.o
                0x00000000eff6af34                mmc_send_cmd
 .text.mmc_send_ext_csd
                0x00000000eff6af64       0x64 drivers/built-in.o
 .text.mmc_read_and_compare_ext_csd
                0x00000000eff6afc8       0xc4 drivers/built-in.o
 .text.mmc_go_idle
                0x00000000eff6b08c       0x6c drivers/built-in.o
 .text.mmc_send_op_cond_iter
                0x00000000eff6b0f8       0x90 drivers/built-in.o
 .text.mmc_send_status
                0x00000000eff6b188       0xdc drivers/built-in.o
                0x00000000eff6b188                mmc_send_status
 .text.mmc_switch
                0x00000000eff6b264       0x8c drivers/built-in.o
                0x00000000eff6b264                mmc_switch
 .text.mmc_startup_v4
                0x00000000eff6b2f0      0x3ac drivers/built-in.o
 .text.mmc_set_card_speed
                0x00000000eff6b69c       0xb4 drivers/built-in.o
 .text.mmc_switch_part
                0x00000000eff6b750       0x88 drivers/built-in.o
                0x00000000eff6b750                mmc_switch_part
 .text.mmc_hwpart_config
                0x00000000eff6b7d8      0x414 drivers/built-in.o
                0x00000000eff6b7d8                mmc_hwpart_config
 .text.mmc_getcd
                0x00000000eff6bbec       0x5c drivers/built-in.o
                0x00000000eff6bbec                mmc_getcd
 .text.sd_select_bus_width
                0x00000000eff6bc48       0xb4 drivers/built-in.o
                0x00000000eff6bc48                sd_select_bus_width
 .text.mmc_set_clock
                0x00000000eff6bcfc       0x3c drivers/built-in.o
                0x00000000eff6bcfc                mmc_set_clock
 .text.mmc_startup
                0x00000000eff6bd38      0xbec drivers/built-in.o
 .text.mmc_dump_capabilities
                0x00000000eff6c924       0xb0 drivers/built-in.o
                0x00000000eff6c924                mmc_dump_capabilities
 .text.board_mmc_power_init
                0x00000000eff6c9d4        0x4 drivers/built-in.o
                0x00000000eff6c9d4                board_mmc_power_init
 .text.mmc_start_init
                0x00000000eff6c9d8      0x2cc drivers/built-in.o
                0x00000000eff6c9d8                mmc_start_init
 .text.mmc_init
                0x00000000eff6cca4      0x154 drivers/built-in.o
                0x00000000eff6cca4                mmc_init
 .text.mmc_set_dsr
                0x00000000eff6cdf8        0xc drivers/built-in.o
                0x00000000eff6cdf8                mmc_set_dsr
 .text.find_mmc_device
                0x00000000eff6ce04       0x64 drivers/built-in.o
                0x00000000eff6ce04                find_mmc_device
 .text.mmc_select_hwpartp
                0x00000000eff6ce68       0x70 drivers/built-in.o
 .text.mmc_get_dev
                0x00000000eff6ced8       0x54 drivers/built-in.o
 .text.mmc_get_blk_desc
                0x00000000eff6cf2c        0x8 drivers/built-in.o
                0x00000000eff6cf2c                mmc_get_blk_desc
 .text.get_mmc_num
                0x00000000eff6cf34       0x34 drivers/built-in.o
                0x00000000eff6cf34                get_mmc_num
 .text.print_mmc_devices
                0x00000000eff6cf68       0xd8 drivers/built-in.o
                0x00000000eff6cf68                print_mmc_devices
 .text.esdhc_set_ios
                0x00000000eff6d040      0x198 drivers/built-in.o
 .text.esdhc_getcd
                0x00000000eff6d1d8       0x70 drivers/built-in.o
 .text.esdhc_init
                0x00000000eff6d248      0x118 drivers/built-in.o
 .text.check_and_invalidate_dcache_range.isra.3
                0x00000000eff6d360       0x4c drivers/built-in.o
 .text.esdhc_send_cmd
                0x00000000eff6d3ac      0x538 drivers/built-in.o
 .text.esdhc_status_fixup
                0x00000000eff6d8e4        0x8 drivers/built-in.o
                0x00000000eff6d8e4                esdhc_status_fixup
 .text.fdt_fixup_esdhc
                0x00000000eff6d8ec       0x58 drivers/built-in.o
                0x00000000eff6d8ec                fdt_fixup_esdhc
 .text.rtc_calc_weekday
                0x00000000eff6d944       0xe4 drivers/built-in.o
                0x00000000eff6d944                rtc_calc_weekday
 .text.rtc_to_tm
                0x00000000eff6da28      0x100 drivers/built-in.o
                0x00000000eff6da28                rtc_to_tm
 .text.rtc_read
                0x00000000eff6db28       0x34 drivers/built-in.o
 .text.rtc_write
                0x00000000eff6db5c       0x38 drivers/built-in.o
 .text.rtc_get  0x00000000eff6db94      0x14c drivers/built-in.o
                0x00000000eff6db94                rtc_get
 .text.rtc_set  0x00000000eff6dce0      0x134 drivers/built-in.o
                0x00000000eff6dce0                rtc_set
 .text.rtc_reset
                0x00000000eff6de14       0x30 drivers/built-in.o
                0x00000000eff6de14                rtc_reset
 .text.fsl_ddr_get_version
                0x00000000eff6de44       0x80 drivers/ddr/fsl/built-in.o
                0x00000000eff6de44                fsl_ddr_get_version
 .text.fsl_ddr_get_intl3r
                0x00000000eff6dec4        0x8 drivers/ddr/fsl/built-in.o
                0x00000000eff6dec4                fsl_ddr_get_intl3r
 .text.print_ddr_info
                0x00000000eff6decc      0x19c drivers/ddr/fsl/built-in.o
                0x00000000eff6decc                print_ddr_info
 .text.detail_board_ddr_info
                0x00000000eff6e068       0x30 drivers/ddr/fsl/built-in.o
                0x00000000eff6e068                detail_board_ddr_info
 .text.board_add_ram_info
                0x00000000eff6e098       0x2c drivers/ddr/fsl/built-in.o
                0x00000000eff6e098                board_add_ram_info
 .text.fsl_ddr_set_memctl_regs
                0x00000000eff6e0c4      0x420 drivers/ddr/fsl/built-in.o
                0x00000000eff6e0c4                fsl_ddr_set_memctl_regs
 .text.i2c_get_adapter
                0x00000000eff6e4e4       0x7c drivers/i2c/built-in.o
                0x00000000eff6e4e4                i2c_get_adapter
 .text.i2c_init_bus
                0x00000000eff6e560       0xac drivers/i2c/built-in.o
 .text.i2c_get_bus_num
                0x00000000eff6e60c        0x8 drivers/i2c/built-in.o
                0x00000000eff6e60c                i2c_get_bus_num
 .text.i2c_set_bus_num
                0x00000000eff6e614       0xd0 drivers/i2c/built-in.o
                0x00000000eff6e614                i2c_set_bus_num
 .text.i2c_init_all
                0x00000000eff6e6e4       0x34 drivers/i2c/built-in.o
                0x00000000eff6e6e4                i2c_init_all
 .text.i2c_probe
                0x00000000eff6e718       0x4c drivers/i2c/built-in.o
                0x00000000eff6e718                i2c_probe
 .text.i2c_read
                0x00000000eff6e764       0x6c drivers/i2c/built-in.o
                0x00000000eff6e764                i2c_read
 .text.i2c_write
                0x00000000eff6e7d0       0x6c drivers/i2c/built-in.o
                0x00000000eff6e7d0                i2c_write
 .text.i2c_set_bus_speed
                0x00000000eff6e83c       0x94 drivers/i2c/built-in.o
                0x00000000eff6e83c                i2c_set_bus_speed
 .text.i2c_get_bus_speed
                0x00000000eff6e8d0       0x34 drivers/i2c/built-in.o
                0x00000000eff6e8d0                i2c_get_bus_speed
 .text.i2c_reg_read
                0x00000000eff6e904       0x3c drivers/i2c/built-in.o
                0x00000000eff6e904                i2c_reg_read
 .text.i2c_reg_write
                0x00000000eff6e940       0x3c drivers/i2c/built-in.o
                0x00000000eff6e940                i2c_reg_write
 .text.i2c_init
                0x00000000eff6e97c       0x48 drivers/i2c/built-in.o
                0x00000000eff6e97c                i2c_init
 .text.set_i2c_bus_speed
                0x00000000eff6e9c4      0x108 drivers/i2c/built-in.o
 .text.i2c_wait4bus
                0x00000000eff6eacc       0x90 drivers/i2c/built-in.o
 .text.fsl_i2c_write
                0x00000000eff6eb5c      0x2b0 drivers/i2c/built-in.o
 .text.__i2c_read
                0x00000000eff6ee0c      0x738 drivers/i2c/built-in.o
 .text.fsl_i2c_read
                0x00000000eff6f544       0x4c drivers/i2c/built-in.o
 .text.fsl_i2c_probe_chip
                0x00000000eff6f590       0x78 drivers/i2c/built-in.o
 .text.fsl_i2c_init
                0x00000000eff6f608      0x210 drivers/i2c/built-in.o
 .text.fsl_i2c_set_bus_speed
                0x00000000eff6f818       0x74 drivers/i2c/built-in.o
 .text.idr_find
                0x00000000eff6f88c       0x24 drivers/mtd/built-in.o
                0x00000000eff6f88c                idr_find
 .text.idr_get_next
                0x00000000eff6f8b0       0x68 drivers/mtd/built-in.o
                0x00000000eff6f8b0                idr_get_next
 .text.idr_alloc
                0x00000000eff6f918       0x44 drivers/mtd/built-in.o
                0x00000000eff6f918                idr_alloc
 .text.__mtd_next_device
                0x00000000eff6f95c       0x38 drivers/mtd/built-in.o
                0x00000000eff6f95c                __mtd_next_device
 .text.__get_mtd_device
                0x00000000eff6f994       0x4c drivers/mtd/built-in.o
                0x00000000eff6f994                __get_mtd_device
 .text.get_mtd_device_nm
                0x00000000eff6f9e0       0x7c drivers/mtd/built-in.o
                0x00000000eff6f9e0                get_mtd_device_nm
 .text.__put_mtd_device
                0x00000000eff6fa5c       0x6c drivers/mtd/built-in.o
                0x00000000eff6fa5c                __put_mtd_device
 .text.put_mtd_device
                0x00000000eff6fac8       0x2c drivers/mtd/built-in.o
                0x00000000eff6fac8                put_mtd_device
 .text.mtd_erase
                0x00000000eff6faf4       0xd0 drivers/mtd/built-in.o
                0x00000000eff6faf4                mtd_erase
 .text.mtd_read
                0x00000000eff6fbc4       0xbc drivers/mtd/built-in.o
                0x00000000eff6fbc4                mtd_read
 .text.mtd_write
                0x00000000eff6fc80       0xa4 drivers/mtd/built-in.o
                0x00000000eff6fc80                mtd_write
 .text.mtd_read_oob
                0x00000000eff6fd24       0x78 drivers/mtd/built-in.o
                0x00000000eff6fd24                mtd_read_oob
 .text.mtd_unlock
                0x00000000eff6fd9c       0x98 drivers/mtd/built-in.o
                0x00000000eff6fd9c                mtd_unlock
 .text.add_mtd_device
                0x00000000eff6fe34      0x170 drivers/mtd/built-in.o
                0x00000000eff6fe34                add_mtd_device
 .text.mtd_block_isbad
                0x00000000eff6ffa4       0x6c drivers/mtd/built-in.o
                0x00000000eff6ffa4                mtd_block_isbad
 .text.mtd_block_markbad
                0x00000000eff70010       0x84 drivers/mtd/built-in.o
                0x00000000eff70010                mtd_block_markbad
 .text.mtd_arg_off
                0x00000000eff70094      0x12c drivers/mtd/built-in.o
                0x00000000eff70094                mtd_arg_off
 .text.mtd_arg_off_size
                0x00000000eff701c0      0x140 drivers/mtd/built-in.o
                0x00000000eff701c0                mtd_arg_off_size
 .text.part_erase
                0x00000000eff70300       0xa8 drivers/mtd/built-in.o
 .text.mtd_erase_callback
                0x00000000eff703a8       0xa0 drivers/mtd/built-in.o
                0x00000000eff703a8                mtd_erase_callback
 .text.flash_get_info
                0x00000000eff70448       0x68 drivers/mtd/built-in.o
 .text.flash_make_cmd
                0x00000000eff704b0       0x5c drivers/mtd/built-in.o
 .text.flash_write_cmd
                0x00000000eff7050c       0xa4 drivers/mtd/built-in.o
 .text.flash_unlock_seq
                0x00000000eff705b0       0x48 drivers/mtd/built-in.o
 .text.flash_isset
                0x00000000eff705f8       0xc4 drivers/mtd/built-in.o
 .text.find_sector
                0x00000000eff706bc       0xe4 drivers/mtd/built-in.o
 .text.cfi_reverse_geometry
                0x00000000eff707a0       0x48 drivers/mtd/built-in.o
 .text.flash_add_byte.isra.3
                0x00000000eff707e8       0x84 drivers/mtd/built-in.o
 .text.flash_isequal.constprop.13
                0x00000000eff7086c       0xbc drivers/mtd/built-in.o
 .text.flash_status_check
                0x00000000eff70928      0x204 drivers/mtd/built-in.o
 .text.flash_full_status_check
                0x00000000eff70b2c      0x180 drivers/mtd/built-in.o
 .text.flash_write_cfiword
                0x00000000eff70cac      0x204 drivers/mtd/built-in.o
 .text.cfi_flash_bank_addr
                0x00000000eff70eb0        0xc drivers/mtd/built-in.o
                0x00000000eff70eb0                cfi_flash_bank_addr
 .text.cfi_flash_bank_size
                0x00000000eff70ebc        0x8 drivers/mtd/built-in.o
                0x00000000eff70ebc                cfi_flash_bank_size
 .text.flash_sector_size
                0x00000000eff70ec4       0x48 drivers/mtd/built-in.o
                0x00000000eff70ec4                flash_sector_size
 .text.flash_erase
                0x00000000eff70f0c      0x208 drivers/mtd/built-in.o
                0x00000000eff70f0c                flash_erase
 .text.flash_print_info
                0x00000000eff71114      0x288 drivers/mtd/built-in.o
                0x00000000eff71114                flash_print_info
 .text.write_buff
                0x00000000eff7139c      0x7d0 drivers/mtd/built-in.o
                0x00000000eff7139c                write_buff
 .text.__flash_cmd_reset
                0x00000000eff71b6c       0x60 drivers/mtd/built-in.o
                0x00000000eff71b6c                flash_cmd_reset
 .text.flash_get_size
                0x00000000eff71bcc      0x9c4 drivers/mtd/built-in.o
                0x00000000eff71bcc                flash_get_size
 .text.flash_set_verbose
                0x00000000eff72590       0x34 drivers/mtd/built-in.o
                0x00000000eff72590                flash_set_verbose
 .text.flash_init
                0x00000000eff725c4       0xac drivers/mtd/built-in.o
                0x00000000eff725c4                flash_init
 .text.cfi_mtd_sync
                0x00000000eff72670        0x4 drivers/mtd/built-in.o
 .text.cfi_mtd_unlock
                0x00000000eff72674       0x64 drivers/mtd/built-in.o
 .text.cfi_mtd_lock
                0x00000000eff726d8       0x64 drivers/mtd/built-in.o
 .text.cfi_mtd_write
                0x00000000eff7273c       0x7c drivers/mtd/built-in.o
 .text.cfi_mtd_read
                0x00000000eff727b8       0x50 drivers/mtd/built-in.o
 .text.cfi_mtd_erase
                0x00000000eff72808      0x104 drivers/mtd/built-in.o
 .text.cfi_mtd_init
                0x00000000eff7290c      0x248 drivers/mtd/built-in.o
                0x00000000eff7290c                cfi_mtd_init
 .text.get_nand_dev_by_index
                0x00000000eff72b54       0x54 drivers/mtd/nand/built-in.o
                0x00000000eff72b54                get_nand_dev_by_index
 .text.check_skip_len
                0x00000000eff72ba8       0xdc drivers/mtd/nand/built-in.o
 .text.nand_erase_opts
                0x00000000eff72c84      0x394 drivers/mtd/nand/built-in.o
                0x00000000eff72c84                nand_erase_opts
 .text.nand_verify_page_oob
                0x00000000eff73018       0xdc drivers/mtd/nand/built-in.o
                0x00000000eff73018                nand_verify_page_oob
 .text.nand_verify
                0x00000000eff730f4      0x108 drivers/mtd/nand/built-in.o
                0x00000000eff730f4                nand_verify
 .text.nand_write_skip_bad
                0x00000000eff731fc      0x2ac drivers/mtd/nand/built-in.o
                0x00000000eff731fc                nand_write_skip_bad
 .text.nand_read_skip_bad
                0x00000000eff734a8      0x240 drivers/mtd/nand/built-in.o
                0x00000000eff734a8                nand_read_skip_bad
 .text.spi_flash_probe
                0x00000000eff736e8       0x94 drivers/mtd/spi/built-in.o
                0x00000000eff736e8                spi_flash_probe
 .text.spi_flash_free
                0x00000000eff7377c       0x44 drivers/mtd/spi/built-in.o
                0x00000000eff7377c                spi_flash_free
 .text.spi_flash_read_common
                0x00000000eff737c0       0x80 drivers/mtd/spi/built-in.o
                0x00000000eff737c0                spi_flash_read_common
 .text.read_sr  0x00000000eff73840       0x54 drivers/mtd/spi/built-in.o
 .text.spi_flash_write_common
                0x00000000eff73894      0x180 drivers/mtd/spi/built-in.o
                0x00000000eff73894                spi_flash_write_common
 .text.spi_flash_cmd_erase_ops
                0x00000000eff73a14       0xf4 drivers/mtd/spi/built-in.o
                0x00000000eff73a14                spi_flash_cmd_erase_ops
 .text.spi_flash_cmd_write_ops
                0x00000000eff73b08      0x108 drivers/mtd/spi/built-in.o
                0x00000000eff73b08                spi_flash_cmd_write_ops
 .text.spi_flash_copy_mmap
                0x00000000eff73c10       0x2c drivers/mtd/spi/built-in.o
                0x00000000eff73c10                spi_flash_copy_mmap
 .text.spi_flash_cmd_read_ops
                0x00000000eff73c3c      0x16c drivers/mtd/spi/built-in.o
                0x00000000eff73c3c                spi_flash_cmd_read_ops
 .text.spi_flash_scan
                0x00000000eff73da8      0x470 drivers/mtd/spi/built-in.o
                0x00000000eff73da8                spi_flash_scan
 .text.spi_flash_read_write
                0x00000000eff74218       0x84 drivers/mtd/spi/built-in.o
 .text.spi_flash_cmd_read
                0x00000000eff7429c       0x10 drivers/mtd/spi/built-in.o
                0x00000000eff7429c                spi_flash_cmd_read
 .text.spi_flash_cmd
                0x00000000eff742ac       0x44 drivers/mtd/spi/built-in.o
                0x00000000eff742ac                spi_flash_cmd
 .text.spi_flash_cmd_write
                0x00000000eff742f0        0xc drivers/mtd/spi/built-in.o
                0x00000000eff742f0                spi_flash_cmd_write
 .text.e1000_config_collision_dist
                0x00000000eff742fc       0x58 drivers/net/built-in.o
 .text.e1000_force_mac_fc
                0x00000000eff74354       0x80 drivers/net/built-in.o
 .text.e1000_transmit
                0x00000000eff743d4      0x168 drivers/net/built-in.o
 .text.e1000_is_onboard_nvm_eeprom
                0x00000000eff7453c       0x54 drivers/net/built-in.o
 .text.e1000_put_hw_eeprom_semaphore
                0x00000000eff74590       0x44 drivers/net/built-in.o
 .text.e1000_is_second_port
                0x00000000eff745d4       0x4c drivers/net/built-in.o
 .text.e1000_check_phy_reset_block
                0x00000000eff74620       0x68 drivers/net/built-in.o
 .text.e1000_set_media_type
                0x00000000eff74688       0xd4 drivers/net/built-in.o
 .text.e1000_disable
                0x00000000eff7475c       0xac drivers/net/built-in.o
 .text.e1000_get_hw_eeprom_semaphore
                0x00000000eff74808       0xfc drivers/net/built-in.o
 .text.e1000_swfw_sync_acquire
                0x00000000eff74904       0xc0 drivers/net/built-in.o
 .text.e1000_write_kmrn_reg
                0x00000000eff749c4       0x84 drivers/net/built-in.o
 .text.e1000_swfw_sync_release
                0x00000000eff74a48       0x64 drivers/net/built-in.o
 .text.e1000_raise_mdi_clk.isra.9
                0x00000000eff74aac       0x58 drivers/net/built-in.o
 .text.e1000_lower_mdi_clk.isra.10
                0x00000000eff74b04       0x58 drivers/net/built-in.o
 .text.e1000_shift_out_mdi_bits
                0x00000000eff74b5c       0xc0 drivers/net/built-in.o
 .text.e1000_read_phy_reg
                0x00000000eff74c1c      0x1ac drivers/net/built-in.o
 .text.e1000_config_mac_to_phy
                0x00000000eff74dc8       0xb0 drivers/net/built-in.o
 .text.e1000_write_phy_reg
                0x00000000eff74e78       0xd8 drivers/net/built-in.o
 .text.e1000_config_fc_after_link_up
                0x00000000eff74f50      0x2fc drivers/net/built-in.o
 .text.e1000_phy_hw_reset.part.15
                0x00000000eff7524c      0x2b0 drivers/net/built-in.o
 .text.e1000_phy_reset.part.16
                0x00000000eff754fc      0x160 drivers/net/built-in.o
 .text.e1000_raise_ee_clk
                0x00000000eff7565c       0x64 drivers/net/built-in.o
                0x00000000eff7565c                e1000_raise_ee_clk
 .text.e1000_lower_ee_clk
                0x00000000eff756c0       0x64 drivers/net/built-in.o
                0x00000000eff756c0                e1000_lower_ee_clk
 .text.e1000_shift_out_ee_bits
                0x00000000eff75724       0xe8 drivers/net/built-in.o
 .text.e1000_shift_in_ee_bits
                0x00000000eff7580c       0xb8 drivers/net/built-in.o
 .text.e1000_standby_eeprom
                0x00000000eff758c4      0x14c drivers/net/built-in.o
                0x00000000eff758c4                e1000_standby_eeprom
 .text.e1000_acquire_eeprom
                0x00000000eff75a10      0x150 drivers/net/built-in.o
                0x00000000eff75a10                e1000_acquire_eeprom
 .text.e1000_release_eeprom
                0x00000000eff75b60      0x114 drivers/net/built-in.o
                0x00000000eff75b60                e1000_release_eeprom
 .text.e1000_read_eeprom
                0x00000000eff75c74      0x2f4 drivers/net/built-in.o
 .text.e1000_init_eeprom_params
                0x00000000eff75f68      0x2d4 drivers/net/built-in.o
 .text.e1000_set_mac_type
                0x00000000eff7623c      0x2d0 drivers/net/built-in.o
                0x00000000eff7623c                e1000_set_mac_type
 .text.e1000_reset_hw
                0x00000000eff7650c      0x290 drivers/net/built-in.o
                0x00000000eff7650c                e1000_reset_hw
 .text.fill_rx  0x00000000eff7679c       0xcc drivers/net/built-in.o
                0x00000000eff7679c                fill_rx
 .text.e1000_poll
                0x00000000eff76868       0xac drivers/net/built-in.o
 .text.e1000_init
                0x00000000eff76914     0x20ac drivers/net/built-in.o
 .text.e1000_get_bus_type
                0x00000000eff789c0       0x58 drivers/net/built-in.o
                0x00000000eff789c0                e1000_get_bus_type
 .text.e1000_initialize
                0x00000000eff78a18      0x538 drivers/net/built-in.o
                0x00000000eff78a18                e1000_initialize
 .text.tsec_send
                0x00000000eff78f50      0x108 drivers/net/built-in.o
 .text.tsec_recv
                0x00000000eff79058      0x13c drivers/net/built-in.o
 .text.tsec_halt
                0x00000000eff79194       0xb4 drivers/net/built-in.o
 .text.tsec_init
                0x00000000eff79248      0x3cc drivers/net/built-in.o
 .text.tsec_eth_init
                0x00000000eff79614      0x2d8 drivers/net/built-in.o
                0x00000000eff79614                tsec_eth_init
 .text.tsec_standard_init
                0x00000000eff798ec       0x58 drivers/net/built-in.o
                0x00000000eff798ec                tsec_standard_init
 .text.fsl_pq_mdio_reset
                0x00000000eff79944       0x3c drivers/net/built-in.o
 .text.tsec_local_mdio_write
                0x00000000eff79980       0x4c drivers/net/built-in.o
                0x00000000eff79980                tsec_local_mdio_write
 .text.tsec_phy_write
                0x00000000eff799cc       0x34 drivers/net/built-in.o
                0x00000000eff799cc                tsec_phy_write
 .text.tsec_local_mdio_read
                0x00000000eff79a00       0x70 drivers/net/built-in.o
                0x00000000eff79a00                tsec_local_mdio_read
 .text.tsec_phy_read
                0x00000000eff79a70       0x30 drivers/net/built-in.o
                0x00000000eff79a70                tsec_phy_read
 .text.fsl_pq_mdio_init
                0x00000000eff79aa0       0x7c drivers/net/built-in.o
                0x00000000eff79aa0                fsl_pq_mdio_init
 .text.genphy_shutdown
                0x00000000eff79b1c        0x8 drivers/net/phy/built-in.o
                0x00000000eff79b1c                genphy_shutdown
 .text.genphy_restart_aneg
                0x00000000eff79b24       0x68 drivers/net/phy/built-in.o
                0x00000000eff79b24                genphy_restart_aneg
 .text.genphy_config_aneg
                0x00000000eff79b8c      0x260 drivers/net/phy/built-in.o
                0x00000000eff79b8c                genphy_config_aneg
 .text.genphy_config
                0x00000000eff79dec      0x114 drivers/net/phy/built-in.o
                0x00000000eff79dec                genphy_config
 .text.genphy_update_link
                0x00000000eff79f00      0x168 drivers/net/phy/built-in.o
                0x00000000eff79f00                genphy_update_link
 .text.genphy_parse_link
                0x00000000eff7a068      0x1e0 drivers/net/phy/built-in.o
                0x00000000eff7a068                genphy_parse_link
 .text.genphy_startup
                0x00000000eff7a248       0x40 drivers/net/phy/built-in.o
                0x00000000eff7a248                genphy_startup
 .text.phy_init
                0x00000000eff7a288       0x30 drivers/net/phy/built-in.o
                0x00000000eff7a288                phy_init
 .text.phy_register
                0x00000000eff7a2b8       0x4c drivers/net/phy/built-in.o
                0x00000000eff7a2b8                phy_register
 .text.get_phy_id
                0x00000000eff7a304       0x88 drivers/net/phy/built-in.o
                0x00000000eff7a304                get_phy_id
 .text.get_phy_device_by_mask
                0x00000000eff7a38c      0x22c drivers/net/phy/built-in.o
 .text.phy_reset
                0x00000000eff7a5b8       0xe8 drivers/net/phy/built-in.o
                0x00000000eff7a5b8                phy_reset
 .text.phy_find_by_mask
                0x00000000eff7a6a0       0x68 drivers/net/phy/built-in.o
                0x00000000eff7a6a0                phy_find_by_mask
 .text.phy_connect_dev
                0x00000000eff7a708       0x64 drivers/net/phy/built-in.o
                0x00000000eff7a708                phy_connect_dev
 .text.phy_connect
                0x00000000eff7a76c       0x6c drivers/net/phy/built-in.o
                0x00000000eff7a76c                phy_connect
 .text.phy_startup
                0x00000000eff7a7d8       0x3c drivers/net/phy/built-in.o
                0x00000000eff7a7d8                phy_startup
 .text.board_phy_config
                0x00000000eff7a814       0x3c drivers/net/phy/built-in.o
                0x00000000eff7a814                board_phy_config
 .text.phy_config
                0x00000000eff7a850       0x2c drivers/net/phy/built-in.o
                0x00000000eff7a850                phy_config
 .text.phy_shutdown
                0x00000000eff7a87c       0x40 drivers/net/phy/built-in.o
                0x00000000eff7a87c                phy_shutdown
 .text.m88e1xxx_phy_extread
                0x00000000eff7a8bc       0xa8 drivers/net/phy/built-in.o
 .text.m88e1xxx_phy_extwrite
                0x00000000eff7a964       0xac drivers/net/phy/built-in.o
 .text.m88e1680_config
                0x00000000eff7aa10      0x270 drivers/net/phy/built-in.o
 .text.m88e1011s_config
                0x00000000eff7ac80      0x120 drivers/net/phy/built-in.o
 .text.m88e1118_config
                0x00000000eff7ada0       0xd4 drivers/net/phy/built-in.o
 .text.m88e1121_config
                0x00000000eff7ae74       0xf0 drivers/net/phy/built-in.o
 .text.m88e1145_config
                0x00000000eff7af64      0x170 drivers/net/phy/built-in.o
 .text.m88e1310_config
                0x00000000eff7b0d4      0x17c drivers/net/phy/built-in.o
 .text.m88e1xxx_parse_status
                0x00000000eff7b250      0x140 drivers/net/phy/built-in.o
 .text.m88e1011s_startup
                0x00000000eff7b390       0x50 drivers/net/phy/built-in.o
 .text.m88e1118_startup
                0x00000000eff7b3e0       0x74 drivers/net/phy/built-in.o
 .text.m88e1149_config
                0x00000000eff7b454       0xe0 drivers/net/phy/built-in.o
 .text.m88e1111s_config
                0x00000000eff7b534      0x258 drivers/net/phy/built-in.o
 .text.m88e1145_startup
                0x00000000eff7b78c       0x70 drivers/net/phy/built-in.o
 .text.m88e1518_phy_writebits
                0x00000000eff7b7fc       0x9c drivers/net/phy/built-in.o
                0x00000000eff7b7fc                m88e1518_phy_writebits
 .text.m88e1518_config
                0x00000000eff7b898      0x31c drivers/net/phy/built-in.o
 .text.m88e1510_config
                0x00000000eff7bbb4       0xc4 drivers/net/phy/built-in.o
 .text.phy_marvell_init
                0x00000000eff7bc78       0x84 drivers/net/phy/built-in.o
                0x00000000eff7bc78                phy_marvell_init
 .text.pci_hose_read_config_byte
                0x00000000eff7bcfc       0x28 drivers/pci/built-in.o
                0x00000000eff7bcfc                pci_hose_read_config_byte
 .text.pci_hose_read_config_word
                0x00000000eff7bd24       0x28 drivers/pci/built-in.o
                0x00000000eff7bd24                pci_hose_read_config_word
 .text.pci_hose_read_config_dword
                0x00000000eff7bd4c       0x28 drivers/pci/built-in.o
                0x00000000eff7bd4c                pci_hose_read_config_dword
 .text.pci_hose_write_config_byte
                0x00000000eff7bd74       0x28 drivers/pci/built-in.o
                0x00000000eff7bd74                pci_hose_write_config_byte
 .text.pci_hose_write_config_word
                0x00000000eff7bd9c       0x28 drivers/pci/built-in.o
                0x00000000eff7bd9c                pci_hose_write_config_word
 .text.pci_hose_write_config_dword
                0x00000000eff7bdc4       0x28 drivers/pci/built-in.o
                0x00000000eff7bdc4                pci_hose_write_config_dword
 .text.pci_get_hose_head
                0x00000000eff7bdec       0x48 drivers/pci/built-in.o
                0x00000000eff7bdec                pci_get_hose_head
 .text.pci_register_hose
                0x00000000eff7be34       0x50 drivers/pci/built-in.o
                0x00000000eff7be34                pci_register_hose
 .text.pci_bus_to_hose
                0x00000000eff7be84       0x64 drivers/pci/built-in.o
                0x00000000eff7be84                pci_bus_to_hose
 .text.pci_read_config_byte
                0x00000000eff7bee8       0x64 drivers/pci/built-in.o
                0x00000000eff7bee8                pci_read_config_byte
 .text.pci_read_config_word
                0x00000000eff7bf4c       0x64 drivers/pci/built-in.o
                0x00000000eff7bf4c                pci_read_config_word
 .text.pci_read_config_dword
                0x00000000eff7bfb0       0x64 drivers/pci/built-in.o
                0x00000000eff7bfb0                pci_read_config_dword
 .text.pci_write_config_byte
                0x00000000eff7c014       0x5c drivers/pci/built-in.o
                0x00000000eff7c014                pci_write_config_byte
 .text.pci_write_config_word
                0x00000000eff7c070       0x5c drivers/pci/built-in.o
                0x00000000eff7c070                pci_write_config_word
 .text.pci_write_config_dword
                0x00000000eff7c0cc       0x5c drivers/pci/built-in.o
                0x00000000eff7c0cc                pci_write_config_dword
 .text.find_hose_by_cfg_addr
                0x00000000eff7c128       0x4c drivers/pci/built-in.o
                0x00000000eff7c128                find_hose_by_cfg_addr
 .text.pci_find_devices
                0x00000000eff7c174       0x84 drivers/pci/built-in.o
                0x00000000eff7c174                pci_find_devices
 .text.pci_print_dev
                0x00000000eff7c1f8       0x18 drivers/pci/built-in.o
                0x00000000eff7c1f8                pci_print_dev
 .text.pci_hose_scan_bus
                0x00000000eff7c210      0x1b8 drivers/pci/built-in.o
                0x00000000eff7c210                pci_hose_scan_bus
 .text.pci_init
                0x00000000eff7c3c8       0x48 drivers/pci/built-in.o
                0x00000000eff7c3c8                pci_init
 .text.pci_hose_find_cap_start
                0x00000000eff7c410       0x64 drivers/pci/built-in.o
                0x00000000eff7c410                pci_hose_find_cap_start
 .text.pci_find_cap
                0x00000000eff7c474       0xac drivers/pci/built-in.o
                0x00000000eff7c474                pci_find_cap
 .text.pci_hose_find_capability
                0x00000000eff7c520       0x70 drivers/pci/built-in.o
                0x00000000eff7c520                pci_hose_find_capability
 .text.pciauto_setup_device
                0x00000000eff7c590      0x2e8 drivers/pci/built-in.o
                0x00000000eff7c590                pciauto_setup_device
 .text.pciauto_prescan_setup_bridge
                0x00000000eff7c878      0x220 drivers/pci/built-in.o
                0x00000000eff7c878                pciauto_prescan_setup_bridge
 .text.pciauto_postscan_setup_bridge
                0x00000000eff7ca98      0x154 drivers/pci/built-in.o
                0x00000000eff7ca98                pciauto_postscan_setup_bridge
 .text.pciauto_config_device
                0x00000000eff7cbec      0x108 drivers/pci/built-in.o
                0x00000000eff7cbec                pciauto_config_device
 .text.pciauto_region_init
                0x00000000eff7ccf4       0x24 drivers/pci/built-in.o
                0x00000000eff7ccf4                pciauto_region_init
 .text.pciauto_region_align
                0x00000000eff7cd18       0x3c drivers/pci/built-in.o
                0x00000000eff7cd18                pciauto_region_align
 .text.pciauto_region_allocate
                0x00000000eff7cd54       0xa8 drivers/pci/built-in.o
                0x00000000eff7cd54                pciauto_region_allocate
 .text.pciauto_config_init
                0x00000000eff7cdfc      0x168 drivers/pci/built-in.o
                0x00000000eff7cdfc                pciauto_config_init
 .text.pci_class_str
                0x00000000eff7cf64      0x114 drivers/pci/built-in.o
                0x00000000eff7cf64                pci_class_str
 .text.pci_skip_dev
                0x00000000eff7d078       0x18 drivers/pci/built-in.o
                0x00000000eff7d078                pci_skip_dev
 .text.__pci_hose_bus_to_phys
                0x00000000eff7d090       0xd8 drivers/pci/built-in.o
                0x00000000eff7d090                __pci_hose_bus_to_phys
 .text.pci_hose_bus_to_phys
                0x00000000eff7d168       0xa4 drivers/pci/built-in.o
                0x00000000eff7d168                pci_hose_bus_to_phys
 .text.pci_map_bar
                0x00000000eff7d20c       0x5c drivers/pci/built-in.o
                0x00000000eff7d20c                pci_map_bar
 .text.__pci_hose_phys_to_bus
                0x00000000eff7d268       0xc4 drivers/pci/built-in.o
                0x00000000eff7d268                __pci_hose_phys_to_bus
 .text.pci_hose_phys_to_bus
                0x00000000eff7d32c       0xa4 drivers/pci/built-in.o
                0x00000000eff7d32c                pci_hose_phys_to_bus
 .text.pci_hose_find_devices
                0x00000000eff7d3d0      0x118 drivers/pci/built-in.o
                0x00000000eff7d3d0                pci_hose_find_devices
 .text.set_inbound_window
                0x00000000eff7d4e8       0x94 drivers/pci/built-in.o
 .text.fsl_is_pci_agent
                0x00000000eff7d57c       0xa0 drivers/pci/built-in.o
                0x00000000eff7d57c                fsl_is_pci_agent
 .text.fsl_setup_hose
                0x00000000eff7d61c       0x54 drivers/pci/built-in.o
                0x00000000eff7d61c                fsl_setup_hose
 .text.fsl_pci_init
                0x00000000eff7d670      0x998 drivers/pci/built-in.o
                0x00000000eff7d670                fsl_pci_init
 .text.fsl_pci_config_unlock
                0x00000000eff7e008       0xfc drivers/pci/built-in.o
                0x00000000eff7e008                fsl_pci_config_unlock
 .text.fsl_pci_init_port
                0x00000000eff7e104      0x17c drivers/pci/built-in.o
                0x00000000eff7e104                fsl_pci_init_port
 .text.fsl_configure_pcie
                0x00000000eff7e280       0xfc drivers/pci/built-in.o
                0x00000000eff7e280                fsl_configure_pcie
 .text.__board_serdes_name
                0x00000000eff7e37c       0x4c drivers/pci/built-in.o
                0x00000000eff7e37c                board_serdes_name
 .text.fsl_pcie_init_ctrl
                0x00000000eff7e3c8       0xa8 drivers/pci/built-in.o
                0x00000000eff7e3c8                fsl_pcie_init_ctrl
 .text.fsl_pcie_init_board
                0x00000000eff7e470      0x174 drivers/pci/built-in.o
                0x00000000eff7e470                fsl_pcie_init_board
 .text.ft_fsl_pci_setup
                0x00000000eff7e5e4       0xc0 drivers/pci/built-in.o
                0x00000000eff7e5e4                ft_fsl_pci_setup
 .text.indirect_read_config_byte
                0x00000000eff7e6a4       0x60 drivers/pci/built-in.o
 .text.indirect_read_config_word
                0x00000000eff7e704       0x60 drivers/pci/built-in.o
 .text.indirect_read_config_dword
                0x00000000eff7e764       0x58 drivers/pci/built-in.o
 .text.indirect_write_config_byte
                0x00000000eff7e7bc       0x54 drivers/pci/built-in.o
 .text.indirect_write_config_word
                0x00000000eff7e810       0x54 drivers/pci/built-in.o
 .text.indirect_write_config_dword
                0x00000000eff7e864       0x4c drivers/pci/built-in.o
 .text.pci_setup_indirect
                0x00000000eff7e8b0       0x64 drivers/pci/built-in.o
                0x00000000eff7e8b0                pci_setup_indirect
 .text.serial_stub_start
                0x00000000eff7e914       0x2c drivers/serial/built-in.o
 .text.serial_stub_stop
                0x00000000eff7e940       0x2c drivers/serial/built-in.o
 .text.serial_stub_putc
                0x00000000eff7e96c       0x30 drivers/serial/built-in.o
 .text.serial_stub_puts
                0x00000000eff7e99c       0x30 drivers/serial/built-in.o
 .text.serial_stub_getc
                0x00000000eff7e9cc       0x2c drivers/serial/built-in.o
 .text.serial_stub_tstc
                0x00000000eff7e9f8       0x2c drivers/serial/built-in.o
 .text.get_current
                0x00000000eff7ea24       0x58 drivers/serial/built-in.o
 .text.serial_null
                0x00000000eff7ea7c        0x4 drivers/serial/built-in.o
                0x00000000eff7ea7c                jz_serial_initialize
                0x00000000eff7ea7c                bfin_serial_initialize
                0x00000000eff7ea7c                p3mx_serial_initialize
                0x00000000eff7ea7c                leon2_serial_initialize
                0x00000000eff7ea7c                leon3_serial_initialize
                0x00000000eff7ea7c                stm32_serial_initialize
                0x00000000eff7ea7c                amirix_serial_initialize
                0x00000000eff7ea7c                marvell_serial_initialize
                0x00000000eff7ea7c                cpci750_serial_initialize
                0x00000000eff7ea7c                asc_serial_initialize
                0x00000000eff7ea7c                sh_serial_initialize
                0x00000000eff7ea7c                oc_serial_initialize
                0x00000000eff7ea7c                mxs_auart_initialize
                0x00000000eff7ea7c                arm_dcc_initialize
                0x00000000eff7ea7c                bmw_serial_initialize
                0x00000000eff7ea7c                arc_serial_initialize
                0x00000000eff7ea7c                mcf_serial_initialize
                0x00000000eff7ea7c                lh7a40x_serial_initialize
                0x00000000eff7ea7c                evb64260_serial_initialize
                0x00000000eff7ea7c                lpc32xx_serial_initialize
                0x00000000eff7ea7c                max3100_serial_initialize
                0x00000000eff7ea7c                mpc85xx_serial_initialize
                0x00000000eff7ea7c                imx_serial_initialize
                0x00000000eff7ea7c                bfin_jtag_initialize
                0x00000000eff7ea7c                cogent_serial_initialize
                0x00000000eff7ea7c                clps7111_serial_initialize
                0x00000000eff7ea7c                ml2_serial_initialize
                0x00000000eff7ea7c                sandbox_serial_initialize
                0x00000000eff7ea7c                s3c24xx_serial_initialize
                0x00000000eff7ea7c                sconsole_serial_initialize
                0x00000000eff7ea7c                uartlite_serial_initialize
                0x00000000eff7ea7c                au1x00_serial_initialize
                0x00000000eff7ea7c                pxa_serial_initialize
                0x00000000eff7ea7c                atmel_serial_initialize
                0x00000000eff7ea7c                pl01x_serial_initialize
                0x00000000eff7ea7c                s5p_serial_initialize
                0x00000000eff7ea7c                zynq_serial_initialize
                0x00000000eff7ea7c                sa1100_serial_initialize
                0x00000000eff7ea7c                mxc_serial_initialize
                0x00000000eff7ea7c                iop480_serial_initialize
                0x00000000eff7ea7c                mpc8xx_serial_initialize
 .text.serial_register
                0x00000000eff7ea80       0x3c drivers/serial/built-in.o
                0x00000000eff7ea80                serial_register
 .text.serial_stdio_init
                0x00000000eff7eabc       0xa8 drivers/serial/built-in.o
                0x00000000eff7eabc                serial_stdio_init
 .text.serial_assign
                0x00000000eff7eb64       0x68 drivers/serial/built-in.o
                0x00000000eff7eb64                serial_assign
 .text.serial_initialize
                0x00000000eff7ebcc       0xd8 drivers/serial/built-in.o
                0x00000000eff7ebcc                serial_initialize
 .text.serial_init
                0x00000000eff7eca4       0x38 drivers/serial/built-in.o
                0x00000000eff7eca4                serial_init
 .text.serial_setbrg
                0x00000000eff7ecdc       0x2c drivers/serial/built-in.o
                0x00000000eff7ecdc                serial_setbrg
 .text.on_baudrate
                0x00000000eff7ed08      0x104 drivers/serial/built-in.o
 .text.serial_getc
                0x00000000eff7ee0c       0x2c drivers/serial/built-in.o
                0x00000000eff7ee0c                serial_getc
 .text.serial_tstc
                0x00000000eff7ee38       0x2c drivers/serial/built-in.o
                0x00000000eff7ee38                serial_tstc
 .text.serial_putc
                0x00000000eff7ee64       0x30 drivers/serial/built-in.o
                0x00000000eff7ee64                serial_putc
 .text.serial_puts
                0x00000000eff7ee94       0x30 drivers/serial/built-in.o
                0x00000000eff7ee94                serial_puts
 .text._serial_putc
                0x00000000eff7eec4       0x68 drivers/serial/built-in.o
 .text.eserial1_putc
                0x00000000eff7ef2c        0x8 drivers/serial/built-in.o
 .text.eserial2_putc
                0x00000000eff7ef34        0x8 drivers/serial/built-in.o
 .text.eserial1_puts
                0x00000000eff7ef3c       0x34 drivers/serial/built-in.o
 .text.eserial1_tstc
                0x00000000eff7ef70       0x34 drivers/serial/built-in.o
 .text.eserial2_getc
                0x00000000eff7efa4       0x34 drivers/serial/built-in.o
 .text._serial_setbrg
                0x00000000eff7efd8       0x5c drivers/serial/built-in.o
 .text.eserial1_setbrg
                0x00000000eff7f034        0x8 drivers/serial/built-in.o
 .text.eserial2_setbrg
                0x00000000eff7f03c        0x8 drivers/serial/built-in.o
 .text.eserial1_init
                0x00000000eff7f044       0x58 drivers/serial/built-in.o
 .text.eserial2_init
                0x00000000eff7f09c       0x58 drivers/serial/built-in.o
 .text.eserial2_tstc
                0x00000000eff7f0f4       0x34 drivers/serial/built-in.o
 .text.eserial1_getc
                0x00000000eff7f128       0x34 drivers/serial/built-in.o
 .text.eserial2_puts
                0x00000000eff7f15c       0x34 drivers/serial/built-in.o
 .text.default_serial_console
                0x00000000eff7f190       0x30 drivers/serial/built-in.o
                0x00000000eff7f190                default_serial_console
 .text.ns16550_serial_initialize
                0x00000000eff7f1c0       0x38 drivers/serial/built-in.o
                0x00000000eff7f1c0                ns16550_serial_initialize
 .text.NS16550_setbrg
                0x00000000eff7f1f8       0x34 drivers/serial/built-in.o
 .text.ns16550_calc_divisor
                0x00000000eff7f22c       0x14 drivers/serial/built-in.o
                0x00000000eff7f22c                ns16550_calc_divisor
 .text.NS16550_init
                0x00000000eff7f240       0x48 drivers/serial/built-in.o
                0x00000000eff7f240                NS16550_init
 .text.NS16550_reinit
                0x00000000eff7f288       0x60 drivers/serial/built-in.o
                0x00000000eff7f288                NS16550_reinit
 .text.NS16550_putc
                0x00000000eff7f2e8       0x24 drivers/serial/built-in.o
                0x00000000eff7f2e8                NS16550_putc
 .text.NS16550_getc
                0x00000000eff7f30c       0x30 drivers/serial/built-in.o
                0x00000000eff7f30c                NS16550_getc
 .text.NS16550_tstc
                0x00000000eff7f33c       0x18 drivers/serial/built-in.o
                0x00000000eff7f33c                NS16550_tstc
 .text.spi_do_alloc_slave
                0x00000000eff7f354       0x6c drivers/spi/built-in.o
                0x00000000eff7f354                spi_do_alloc_slave
 .text.spi_free_slave
                0x00000000eff7f3c0        0x4 drivers/spi/built-in.o
                0x00000000eff7f3c0                spi_free_slave
 .text.spi_init
                0x00000000eff7f3c4        0x4 drivers/spi/built-in.o
                0x00000000eff7f3c4                spi_init
 .text.spi_claim_bus
                0x00000000eff7f3c8      0x148 drivers/spi/built-in.o
                0x00000000eff7f3c8                spi_claim_bus
 .text.spi_release_bus
                0x00000000eff7f510        0x4 drivers/spi/built-in.o
                0x00000000eff7f510                spi_release_bus
 .text.spi_cs_is_valid
                0x00000000eff7f514       0x20 drivers/spi/built-in.o
                0x00000000eff7f514                spi_cs_is_valid
 .text.spi_setup_slave
                0x00000000eff7f534      0x124 drivers/spi/built-in.o
                0x00000000eff7f534                spi_setup_slave
 .text.spi_cs_activate
                0x00000000eff7f658       0x24 drivers/spi/built-in.o
                0x00000000eff7f658                spi_cs_activate
 .text.spi_cs_deactivate
                0x00000000eff7f67c       0x44 drivers/spi/built-in.o
                0x00000000eff7f67c                spi_cs_deactivate
 .text.spi_xfer
                0x00000000eff7f6c0      0x388 drivers/spi/built-in.o
                0x00000000eff7f6c0                spi_xfer
 .text.fdt_fixup_usb_mode_phy_type
                0x00000000eff7fa48      0x10c drivers/usb/common/built-in.o
 .text.fsl_fdt_fixup_erratum
                0x00000000eff7fb54      0x15c drivers/usb/common/built-in.o
 .text.fsl_fdt_fixup_dr_usb
                0x00000000eff7fcb0      0x228 drivers/usb/common/built-in.o
                0x00000000eff7fcb0                fsl_fdt_fixup_dr_usb
 .text.has_dual_phy
                0x00000000eff7fed8      0x14c drivers/usb/common/built-in.o
                0x00000000eff7fed8                has_dual_phy
 .text.has_erratum_a006261
                0x00000000eff80024      0x130 drivers/usb/common/built-in.o
                0x00000000eff80024                has_erratum_a006261
 .text.has_erratum_a007075
                0x00000000eff80154       0x9c drivers/usb/common/built-in.o
                0x00000000eff80154                has_erratum_a007075
 .text.has_erratum_a007798
                0x00000000eff801f0       0x4c drivers/usb/common/built-in.o
                0x00000000eff801f0                has_erratum_a007798
 .text.has_erratum_a007792
                0x00000000eff8023c      0x134 drivers/usb/common/built-in.o
                0x00000000eff8023c                has_erratum_a007792
 .text.has_erratum_a005697
                0x00000000eff80370       0x5c drivers/usb/common/built-in.o
                0x00000000eff80370                has_erratum_a005697
 .text.has_erratum_a004477
                0x00000000eff803cc      0x128 drivers/usb/common/built-in.o
                0x00000000eff803cc                has_erratum_a004477
 .text.has_erratum_a008751
                0x00000000eff804f4        0xc drivers/usb/common/built-in.o
                0x00000000eff804f4                has_erratum_a008751
 .text.ehci_get_port_speed
                0x00000000eff80500        0x8 drivers/usb/host/built-in.o
 .text.ehci_set_usbmode
                0x00000000eff80508       0x18 drivers/usb/host/built-in.o
 .text.ehci_get_portsc_register
                0x00000000eff80520       0x40 drivers/usb/host/built-in.o
 .text.ehci_powerup_fixup
                0x00000000eff80560       0x44 drivers/usb/host/built-in.o
 .text.handshake
                0x00000000eff805a4       0x6c drivers/usb/host/built-in.o
 .text.ehci_shutdown
                0x00000000eff80610       0xe0 drivers/usb/host/built-in.o
 .text.ehci_td_buffer
                0x00000000eff806f0       0xb0 drivers/usb/host/built-in.o
 .text._ehci_poll_int_queue
                0x00000000eff807a0      0x100 drivers/usb/host/built-in.o
 .text.disable_periodic.isra.2
                0x00000000eff808a0       0x68 drivers/usb/host/built-in.o
 .text.enable_periodic.isra.3
                0x00000000eff80908       0x70 drivers/usb/host/built-in.o
 .text._ehci_destroy_int_queue
                0x00000000eff80978      0x108 drivers/usb/host/built-in.o
 .text.ehci_update_endpt2_dev_n_port.isra.4
                0x00000000eff80a80       0x84 drivers/usb/host/built-in.o
 .text.ehci_submit_async
                0x00000000eff80b04      0x65c drivers/usb/host/built-in.o
 .text._ehci_create_int_queue.isra.6
                0x00000000eff81160      0x3ec drivers/usb/host/built-in.o
 .text.usb_lowlevel_stop
                0x00000000eff8154c       0x44 drivers/usb/host/built-in.o
                0x00000000eff8154c                usb_lowlevel_stop
 .text.usb_lowlevel_init
                0x00000000eff81590      0x31c drivers/usb/host/built-in.o
                0x00000000eff81590                usb_lowlevel_init
 .text.submit_bulk_msg
                0x00000000eff818ac       0x1c drivers/usb/host/built-in.o
                0x00000000eff818ac                submit_bulk_msg
 .text.submit_control_msg
                0x00000000eff818c8      0x5c4 drivers/usb/host/built-in.o
                0x00000000eff818c8                submit_control_msg
 .text.submit_int_msg
                0x00000000eff81e8c       0xcc drivers/usb/host/built-in.o
                0x00000000eff81e8c                submit_int_msg
 .text.ehci_hcd_init
                0x00000000eff81f58      0x2a4 drivers/usb/host/built-in.o
                0x00000000eff81f58                ehci_hcd_init
 .text.ehci_hcd_stop
                0x00000000eff821fc        0x8 drivers/usb/host/built-in.o
                0x00000000eff821fc                ehci_hcd_stop
 .text.env_get_yesno
                0x00000000eff82204       0x64 env/built-in.o
                0x00000000eff82204                env_get_yesno
 .text.env_get_default
                0x00000000eff82268       0x50 env/built-in.o
                0x00000000eff82268                env_get_default
 .text.set_default_env
                0x00000000eff822b8       0xb0 env/built-in.o
                0x00000000eff822b8                set_default_env
 .text.set_default_vars
                0x00000000eff82368       0x4c env/built-in.o
                0x00000000eff82368                set_default_vars
 .text.env_import
                0x00000000eff823b4       0xcc env/built-in.o
                0x00000000eff823b4                env_import
 .text.env_export
                0x00000000eff82480       0x8c env/built-in.o
                0x00000000eff82480                env_export
 .text.env_relocate
                0x00000000eff8250c       0x4c env/built-in.o
                0x00000000eff8250c                env_relocate
 .text.env_get_location
                0x00000000eff82558       0x30 env/built-in.o
                0x00000000eff82558                env_get_location
 .text.env_driver_lookup
                0x00000000eff82588       0x64 env/built-in.o
 .text.env_get_char
                0x00000000eff825ec       0xac env/built-in.o
                0x00000000eff825ec                env_get_char
 .text.env_load
                0x00000000eff82698       0xb4 env/built-in.o
                0x00000000eff82698                env_load
 .text.env_save
                0x00000000eff8274c       0xb4 env/built-in.o
                0x00000000eff8274c                env_save
 .text.env_init
                0x00000000eff82800       0xac env/built-in.o
                0x00000000eff82800                env_init
 .text.regex_callback
                0x00000000eff828ac      0x180 env/built-in.o
 .text.env_attr_walk
                0x00000000eff82a2c      0x154 env/built-in.o
                0x00000000eff82a2c                env_attr_walk
 .text.env_attr_lookup
                0x00000000eff82b80       0xa0 env/built-in.o
                0x00000000eff82b80                env_attr_lookup
 .text.clear_callback
                0x00000000eff82c20       0x10 env/built-in.o
 .text.find_env_callback
                0x00000000eff82c30       0x7c env/built-in.o
 .text.on_callbacks
                0x00000000eff82cac       0x60 env/built-in.o
 .text.set_callback
                0x00000000eff82d0c       0xb4 env/built-in.o
 .text.env_callback_init
                0x00000000eff82dc0       0xd8 env/built-in.o
                0x00000000eff82dc0                env_callback_init
 .text.skip_num
                0x00000000eff82e98       0xa4 env/built-in.o
 .text.clear_flags
                0x00000000eff82f3c       0x10 env/built-in.o
 .text.on_flags
                0x00000000eff82f4c       0x60 env/built-in.o
 .text.env_flags_parse_vartype
                0x00000000eff82fac       0x68 env/built-in.o
                0x00000000eff82fac                env_flags_parse_vartype
 .text.env_flags_parse_varaccess
                0x00000000eff83014       0x68 env/built-in.o
                0x00000000eff83014                env_flags_parse_varaccess
 .text.set_flags
                0x00000000eff8307c       0xc0 env/built-in.o
 .text.eth_validate_ethaddr_str
                0x00000000eff8313c       0xa4 env/built-in.o
                0x00000000eff8313c                eth_validate_ethaddr_str
 .text.env_flags_init
                0x00000000eff831e0       0xe8 env/built-in.o
                0x00000000eff831e0                env_flags_init
 .text.env_flags_validate
                0x00000000eff832c8      0x284 env/built-in.o
                0x00000000eff832c8                env_flags_validate
 .text.env_flash_init
                0x00000000eff8354c       0x78 env/built-in.o
 .text.env_flash_save
                0x00000000eff835c4      0x130 env/built-in.o
 .text.env_flash_load
                0x00000000eff836f4       0x38 env/built-in.o
 .text.fs_probe_unsupported
                0x00000000eff8372c       0x34 fs/built-in.o
 .text.fs_exists_unsupported
                0x00000000eff83760        0x8 fs/built-in.o
 .text.fs_size_unsupported
                0x00000000eff83768        0x8 fs/built-in.o
 .text.fs_write_unsupported
                0x00000000eff83770        0x8 fs/built-in.o
 .text.fs_close_unsupported
                0x00000000eff83778        0x4 fs/built-in.o
 .text.fs_uuid_unsupported
                0x00000000eff8377c        0x8 fs/built-in.o
 .text.fs_opendir_unsupported
                0x00000000eff83784        0x8 fs/built-in.o
 .text.fs_get_info
                0x00000000eff8378c       0x5c fs/built-in.o
 .text.fs_close
                0x00000000eff837e8       0x48 fs/built-in.o
 .text.fs_read_unsupported
                0x00000000eff83830        0x8 fs/built-in.o
 .text.fs_ls_unsupported
                0x00000000eff83838        0x8 fs/built-in.o
 .text.fs_set_blk_dev
                0x00000000eff83840       0xe4 fs/built-in.o
                0x00000000eff83840                fs_set_blk_dev
 .text.fs_set_blk_dev_with_part
                0x00000000eff83924       0xa8 fs/built-in.o
                0x00000000eff83924                fs_set_blk_dev_with_part
 .text.fs_ls    0x00000000eff839cc       0x5c fs/built-in.o
                0x00000000eff839cc                fs_ls
 .text.fs_exists
                0x00000000eff83a28       0x54 fs/built-in.o
                0x00000000eff83a28                fs_exists
 .text.fs_size  0x00000000eff83a7c       0x5c fs/built-in.o
                0x00000000eff83a7c                fs_size
 .text.fs_read  0x00000000eff83ad8       0x84 fs/built-in.o
                0x00000000eff83ad8                fs_read
 .text.fs_opendir
                0x00000000eff83b5c       0x94 fs/built-in.o
                0x00000000eff83b5c                fs_opendir
 .text.fs_readdir
                0x00000000eff83bf0       0x7c fs/built-in.o
                0x00000000eff83bf0                fs_readdir
 .text.fs_closedir
                0x00000000eff83c6c       0x68 fs/built-in.o
                0x00000000eff83c6c                fs_closedir
 .text.fs_ls_generic
                0x00000000eff83cd4       0xc0 fs/built-in.o
 .text.do_size  0x00000000eff83d94       0x7c fs/built-in.o
                0x00000000eff83d94                do_size
 .text.do_load  0x00000000eff83e10      0x230 fs/built-in.o
                0x00000000eff83e10                do_load
 .text.do_ls    0x00000000eff84040       0x94 fs/built-in.o
                0x00000000eff84040                do_ls
 .text.file_exists
                0x00000000eff840d4       0x4c fs/built-in.o
                0x00000000eff840d4                file_exists
 .text.get_fs   0x00000000eff84120       0x30 fs/built-in.o
                0x00000000eff84120                get_fs
 .text.ext4fs_free_node
                0x00000000eff84150       0x54 fs/built-in.o
                0x00000000eff84150                ext4fs_free_node
 .text.ext4fs_read_file
                0x00000000eff841a4      0x3c8 fs/built-in.o
                0x00000000eff841a4                ext4fs_read_file
 .text.ext4fs_ls
                0x00000000eff8456c       0xa4 fs/built-in.o
                0x00000000eff8456c                ext4fs_ls
 .text.ext4fs_exists
                0x00000000eff84610       0x38 fs/built-in.o
                0x00000000eff84610                ext4fs_exists
 .text.ext4fs_size
                0x00000000eff84648       0x2c fs/built-in.o
                0x00000000eff84648                ext4fs_size
 .text.ext4fs_read
                0x00000000eff84674       0x68 fs/built-in.o
                0x00000000eff84674                ext4fs_read
 .text.ext4fs_probe
                0x00000000eff846dc       0x50 fs/built-in.o
                0x00000000eff846dc                ext4fs_probe
 .text.ext4_read_file
                0x00000000eff8472c       0x94 fs/built-in.o
                0x00000000eff8472c                ext4_read_file
 .text.ext4fs_uuid
                0x00000000eff847c0       0x44 fs/built-in.o
                0x00000000eff847c0                ext4fs_uuid
 .text.ext4fs_bg_get_inode_table_id
                0x00000000eff84804       0x4c fs/built-in.o
                0x00000000eff84804                ext4fs_bg_get_inode_table_id
 .text.ext4fs_read_inode
                0x00000000eff84850      0x188 fs/built-in.o
                0x00000000eff84850                ext4fs_read_inode
 .text.read_allocated_block
                0x00000000eff849d8      0xa20 fs/built-in.o
                0x00000000eff849d8                read_allocated_block
 .text.ext4fs_reinit_global
                0x00000000eff853f8       0xb8 fs/built-in.o
                0x00000000eff853f8                ext4fs_reinit_global
 .text.ext4fs_close
                0x00000000eff854b0       0x78 fs/built-in.o
                0x00000000eff854b0                ext4fs_close
 .text.ext4fs_iterate_dir
                0x00000000eff85528      0x358 fs/built-in.o
                0x00000000eff85528                ext4fs_iterate_dir
 .text.ext4fs_find_file1
                0x00000000eff85880      0x30c fs/built-in.o
 .text.ext4fs_find_file
                0x00000000eff85b8c       0x94 fs/built-in.o
                0x00000000eff85b8c                ext4fs_find_file
 .text.ext4fs_open
                0x00000000eff85c20       0xd8 fs/built-in.o
                0x00000000eff85c20                ext4fs_open
 .text.ext4fs_mount
                0x00000000eff85cf8      0x15c fs/built-in.o
                0x00000000eff85cf8                ext4fs_mount
 .text.ext4fs_set_blk_dev
                0x00000000eff85e54       0x84 fs/built-in.o
                0x00000000eff85e54                ext4fs_set_blk_dev
 .text.ext4fs_devread
                0x00000000eff85ed8       0x5c fs/built-in.o
                0x00000000eff85ed8                ext4fs_devread
 .text.ext4_read_superblock
                0x00000000eff85f34       0x5c fs/built-in.o
                0x00000000eff85f34                ext4_read_superblock
 .text.downcase
                0x00000000eff85f90       0x6c fs/built-in.o
 .text.disk_read
                0x00000000eff85ffc       0x74 fs/built-in.o
 .text.get_cluster
                0x00000000eff86070      0x1ac fs/built-in.o
 .text.get_fatent
                0x00000000eff8621c      0x198 fs/built-in.o
 .text.next_dent
                0x00000000eff863b4      0x180 fs/built-in.o
 .text.read_bootsectandvi
                0x00000000eff86534      0x1f4 fs/built-in.o
 .text.fat_itr_root
                0x00000000eff86728      0x16c fs/built-in.o
 .text.fat_itr_next
                0x00000000eff86894      0x2c0 fs/built-in.o
 .text.fat_itr_resolve
                0x00000000eff86b54      0x1b8 fs/built-in.o
 .text.fat_set_blk_dev
                0x00000000eff86d0c       0xd8 fs/built-in.o
                0x00000000eff86d0c                fat_set_blk_dev
 .text.file_fat_detectfs
                0x00000000eff86de4      0x124 fs/built-in.o
                0x00000000eff86de4                file_fat_detectfs
 .text.fat_exists
                0x00000000eff86f08       0x78 fs/built-in.o
                0x00000000eff86f08                fat_exists
 .text.fat_size
                0x00000000eff86f80       0xe4 fs/built-in.o
                0x00000000eff86f80                fat_size
 .text.file_fat_read_at
                0x00000000eff87064      0x470 fs/built-in.o
                0x00000000eff87064                file_fat_read_at
 .text.fat_read_file
                0x00000000eff874d4       0x58 fs/built-in.o
                0x00000000eff874d4                fat_read_file
 .text.fat_opendir
                0x00000000eff8752c       0xac fs/built-in.o
                0x00000000eff8752c                fat_opendir
 .text.fat_readdir
                0x00000000eff875d8       0xb4 fs/built-in.o
                0x00000000eff875d8                fat_readdir
 .text.fat_closedir
                0x00000000eff8768c       0x34 fs/built-in.o
                0x00000000eff8768c                fat_closedir
 .text.fat_close
                0x00000000eff876c0        0x4 fs/built-in.o
                0x00000000eff876c0                fat_close
 .text.fs_devread
                0x00000000eff876c4      0x248 fs/built-in.o
                0x00000000eff876c4                fs_devread
 .text.fdt_check_header
                0x00000000eff8790c       0x64 lib/built-in.o
                0x00000000eff8790c                fdt_check_header
 .text.fdt_offset_ptr
                0x00000000eff87970       0x64 lib/built-in.o
                0x00000000eff87970                fdt_offset_ptr
 .text.fdt_next_tag
                0x00000000eff879d4      0x104 lib/built-in.o
                0x00000000eff879d4                fdt_next_tag
 .text._fdt_check_node_offset
                0x00000000eff87ad8       0x58 lib/built-in.o
                0x00000000eff87ad8                _fdt_check_node_offset
 .text._fdt_check_prop_offset
                0x00000000eff87b30       0x58 lib/built-in.o
                0x00000000eff87b30                _fdt_check_prop_offset
 .text.fdt_next_node
                0x00000000eff87b88      0x100 lib/built-in.o
                0x00000000eff87b88                fdt_next_node
 .text.fdt_first_subnode
                0x00000000eff87c88       0x54 lib/built-in.o
                0x00000000eff87c88                fdt_first_subnode
 .text.fdt_next_subnode
                0x00000000eff87cdc       0x6c lib/built-in.o
                0x00000000eff87cdc                fdt_next_subnode
 .text._fdt_find_string
                0x00000000eff87d48       0x7c lib/built-in.o
                0x00000000eff87d48                _fdt_find_string
 .text.fdt_move
                0x00000000eff87dc4       0x60 lib/built-in.o
                0x00000000eff87dc4                fdt_move
 .text._fdt_node_end_offset
                0x00000000eff87e24       0x64 lib/built-in.o
                0x00000000eff87e24                _fdt_node_end_offset
 .text.fdt_strerror
                0x00000000eff87e88       0x74 lib/built-in.o
                0x00000000eff87e88                fdt_strerror
 .text._fdt_splice
                0x00000000eff87efc       0xa4 lib/built-in.o
 .text._fdt_splice_struct
                0x00000000eff87fa0       0x4c lib/built-in.o
 .text._fdt_packblocks
                0x00000000eff87fec       0x90 lib/built-in.o
 .text._fdt_add_property
                0x00000000eff8807c      0x128 lib/built-in.o
 .text._fdt_rw_check_header
                0x00000000eff881a4       0xa4 lib/built-in.o
 .text.fdt_add_mem_rsv
                0x00000000eff88248       0xa4 lib/built-in.o
                0x00000000eff88248                fdt_add_mem_rsv
 .text.fdt_del_mem_rsv
                0x00000000eff882ec       0x9c lib/built-in.o
                0x00000000eff882ec                fdt_del_mem_rsv
 .text.fdt_setprop_placeholder
                0x00000000eff88388       0xd8 lib/built-in.o
                0x00000000eff88388                fdt_setprop_placeholder
 .text.fdt_setprop
                0x00000000eff88460       0x6c lib/built-in.o
                0x00000000eff88460                fdt_setprop
 .text.fdt_delprop
                0x00000000eff884cc       0x78 lib/built-in.o
                0x00000000eff884cc                fdt_delprop
 .text.fdt_add_subnode_namelen
                0x00000000eff88544      0x11c lib/built-in.o
                0x00000000eff88544                fdt_add_subnode_namelen
 .text.fdt_add_subnode
                0x00000000eff88660       0x50 lib/built-in.o
                0x00000000eff88660                fdt_add_subnode
 .text.fdt_del_node
                0x00000000eff886b0       0x7c lib/built-in.o
                0x00000000eff886b0                fdt_del_node
 .text.fdt_open_into
                0x00000000eff8872c      0x1b4 lib/built-in.o
                0x00000000eff8872c                fdt_open_into
 .text.fdt_address_cells
                0x00000000eff888e0       0x68 lib/built-in.o
                0x00000000eff888e0                fdt_address_cells
 .text.fdt_size_cells
                0x00000000eff88948       0x64 lib/built-in.o
                0x00000000eff88948                fdt_size_cells
 .text.fdt_path_next_separator
                0x00000000eff889ac       0x74 lib/built-in.o
 .text._nextprop
                0x00000000eff88a20       0x80 lib/built-in.o
 .text.fdt_string
                0x00000000eff88aa0       0x10 lib/built-in.o
                0x00000000eff88aa0                fdt_string
 .text.fdt_get_mem_rsv
                0x00000000eff88ab0       0x74 lib/built-in.o
                0x00000000eff88ab0                fdt_get_mem_rsv
 .text.fdt_num_mem_rsv
                0x00000000eff88b24       0x2c lib/built-in.o
                0x00000000eff88b24                fdt_num_mem_rsv
 .text.fdt_subnode_offset_namelen
                0x00000000eff88b50       0xf8 lib/built-in.o
                0x00000000eff88b50                fdt_subnode_offset_namelen
 .text.fdt_subnode_offset
                0x00000000eff88c48       0x50 lib/built-in.o
                0x00000000eff88c48                fdt_subnode_offset
 .text.fdt_get_name
                0x00000000eff88c98       0x8c lib/built-in.o
                0x00000000eff88c98                fdt_get_name
 .text.fdt_first_property_offset
                0x00000000eff88d24       0x50 lib/built-in.o
                0x00000000eff88d24                fdt_first_property_offset
 .text.fdt_next_property_offset
                0x00000000eff88d74       0x50 lib/built-in.o
                0x00000000eff88d74                fdt_next_property_offset
 .text.fdt_get_property_by_offset
                0x00000000eff88dc4       0x70 lib/built-in.o
                0x00000000eff88dc4                fdt_get_property_by_offset
 .text.fdt_get_property_namelen
                0x00000000eff88e34       0xd0 lib/built-in.o
                0x00000000eff88e34                fdt_get_property_namelen
 .text.fdt_get_property
                0x00000000eff88f04       0x58 lib/built-in.o
                0x00000000eff88f04                fdt_get_property
 .text.fdt_getprop_namelen
                0x00000000eff88f5c       0x40 lib/built-in.o
                0x00000000eff88f5c                fdt_getprop_namelen
 .text.fdt_getprop_by_offset
                0x00000000eff88f9c       0x64 lib/built-in.o
                0x00000000eff88f9c                fdt_getprop_by_offset
 .text.fdt_getprop
                0x00000000eff89000       0x58 lib/built-in.o
                0x00000000eff89000                fdt_getprop
 .text.fdt_get_phandle
                0x00000000eff89058       0x84 lib/built-in.o
                0x00000000eff89058                fdt_get_phandle
 .text.fdt_get_alias_namelen
                0x00000000eff890dc       0x60 lib/built-in.o
                0x00000000eff890dc                fdt_get_alias_namelen
 .text.fdt_path_offset_namelen
                0x00000000eff8913c      0x118 lib/built-in.o
                0x00000000eff8913c                fdt_path_offset_namelen
 .text.fdt_path_offset
                0x00000000eff89254       0x48 lib/built-in.o
                0x00000000eff89254                fdt_path_offset
 .text.fdt_supernode_atdepth_offset
                0x00000000eff8929c       0xd8 lib/built-in.o
                0x00000000eff8929c                fdt_supernode_atdepth_offset
 .text.fdt_node_depth
                0x00000000eff89374       0x4c lib/built-in.o
                0x00000000eff89374                fdt_node_depth
 .text.fdt_parent_offset
                0x00000000eff893c0       0x50 lib/built-in.o
                0x00000000eff893c0                fdt_parent_offset
 .text.fdt_node_offset_by_prop_value
                0x00000000eff89410       0xc0 lib/built-in.o
                0x00000000eff89410                fdt_node_offset_by_prop_value
 .text.fdt_node_offset_by_phandle
                0x00000000eff894d0       0x94 lib/built-in.o
                0x00000000eff894d0                fdt_node_offset_by_phandle
 .text.fdt_stringlist_contains
                0x00000000eff89564       0x9c lib/built-in.o
                0x00000000eff89564                fdt_stringlist_contains
 .text.fdt_stringlist_count
                0x00000000eff89600       0x80 lib/built-in.o
                0x00000000eff89600                fdt_stringlist_count
 .text.fdt_stringlist_get
                0x00000000eff89680       0xd0 lib/built-in.o
                0x00000000eff89680                fdt_stringlist_get
 .text.fdt_node_check_compatible
                0x00000000eff89750       0x5c lib/built-in.o
                0x00000000eff89750                fdt_node_check_compatible
 .text.fdt_node_offset_by_compatible
                0x00000000eff897ac       0x8c lib/built-in.o
                0x00000000eff897ac                fdt_node_offset_by_compatible
 .text.utf16_strnlen
                0x00000000eff89838       0x2c lib/built-in.o
                0x00000000eff89838                utf16_strnlen
 .text.utf16_to_utf8
                0x00000000eff89864      0x13c lib/built-in.o
                0x00000000eff89864                utf16_to_utf8
 .text.crc16_ccitt
                0x00000000eff899a0       0x78 lib/built-in.o
                0x00000000eff899a0                crc16_ccitt
 .text.initcall_run_list
                0x00000000eff89a18       0x90 lib/built-in.o
                0x00000000eff89a18                initcall_run_list
 .text.lmb_add_region
                0x00000000eff89aa8      0x2c8 lib/built-in.o
 .text.lmb_init
                0x00000000eff89d70       0x48 lib/built-in.o
                0x00000000eff89d70                lmb_init
 .text.lmb_add  0x00000000eff89db8        0x4 lib/built-in.o
                0x00000000eff89db8                lmb_add
 .text.lmb_free
                0x00000000eff89dbc      0x1b4 lib/built-in.o
                0x00000000eff89dbc                lmb_free
 .text.lmb_reserve
                0x00000000eff89f70        0x8 lib/built-in.o
                0x00000000eff89f70                lmb_reserve
 .text.__lmb_alloc_base
                0x00000000eff89f78      0x204 lib/built-in.o
                0x00000000eff89f78                __lmb_alloc_base
 .text.lmb_alloc_base
                0x00000000eff8a17c       0x5c lib/built-in.o
                0x00000000eff8a17c                lmb_alloc_base
 .text.lmb_alloc
                0x00000000eff8a1d8       0x34 lib/built-in.o
                0x00000000eff8a1d8                lmb_alloc
 .text.board_lmb_reserve
                0x00000000eff8a20c        0x4 lib/built-in.o
                0x00000000eff8a20c                board_lmb_reserve
 .text.byteReverse
                0x00000000eff8a210       0x20 lib/built-in.o
 .text.MD5Transform
                0x00000000eff8a230      0x900 lib/built-in.o
 .text.MD5Update
                0x00000000eff8ab30      0x110 lib/built-in.o
 .text.MD5Final
                0x00000000eff8ac40       0xe8 lib/built-in.o
 .text.md5_wd   0x00000000eff8ad28       0x78 lib/built-in.o
                0x00000000eff8ad28                md5_wd
 .text.string_to_ip
                0x00000000eff8ada0       0xc0 lib/built-in.o
                0x00000000eff8ada0                string_to_ip
 .text.qsort    0x00000000eff8ae60       0xdc lib/built-in.o
                0x00000000eff8ae60                qsort
 .text.sha1_process
                0x00000000eff8af3c     0x10c4 lib/built-in.o
 .text.sha1_starts
                0x00000000eff8c000       0x4c lib/built-in.o
                0x00000000eff8c000                sha1_starts
 .text.sha1_update
                0x00000000eff8c04c       0xec lib/built-in.o
                0x00000000eff8c04c                sha1_update
 .text.sha1_finish
                0x00000000eff8c138      0x164 lib/built-in.o
                0x00000000eff8c138                sha1_finish
 .text.sha1_csum_wd
                0x00000000eff8c29c       0x5c lib/built-in.o
                0x00000000eff8c29c                sha1_csum_wd
 .text.sha256_process
                0x00000000eff8c2f8     0x23bc lib/built-in.o
 .text.sha256_starts
                0x00000000eff8e6b4       0x70 lib/built-in.o
                0x00000000eff8e6b4                sha256_starts
 .text.sha256_update
                0x00000000eff8e724       0xec lib/built-in.o
                0x00000000eff8e724                sha256_update
 .text.sha256_finish
                0x00000000eff8e810      0x1d0 lib/built-in.o
                0x00000000eff8e810                sha256_finish
 .text.sha256_csum_wd
                0x00000000eff8e9e0       0x5c lib/built-in.o
                0x00000000eff8e9e0                sha256_csum_wd
 .text.zcalloc  0x00000000eff8ea3c        0x8 lib/built-in.o
                0x00000000eff8ea3c                zcalloc
 .text.zcfree   0x00000000eff8ea44        0x8 lib/built-in.o
                0x00000000eff8ea44                zcfree
 .text.inflate_fast
                0x00000000eff8ea4c      0x4f8 lib/built-in.o
                0x00000000eff8ea4c                inflate_fast
 .text.inflate_table
                0x00000000eff8ef44      0x4f4 lib/built-in.o
                0x00000000eff8ef44                inflate_table
 .text.inflateReset
                0x00000000eff8f438       0x84 lib/built-in.o
                0x00000000eff8f438                inflateReset
 .text.inflateInit2_
                0x00000000eff8f4bc      0x13c lib/built-in.o
                0x00000000eff8f4bc                inflateInit2_
 .text.inflateEnd
                0x00000000eff8f5f8       0x84 lib/built-in.o
                0x00000000eff8f5f8                inflateEnd
 .text.adler32  0x00000000eff8f67c      0x30c lib/built-in.o
                0x00000000eff8f67c                adler32
 .text.inflate  0x00000000eff8f988     0x1720 lib/built-in.o
                0x00000000eff8f988                inflate
 .text.gzalloc  0x00000000eff910a8       0x10 lib/built-in.o
                0x00000000eff910a8                gzalloc
 .text.gzfree   0x00000000eff910b8        0x8 lib/built-in.o
                0x00000000eff910b8                gzfree
 .text.gzip_parse_header
                0x00000000eff910c0       0xd4 lib/built-in.o
                0x00000000eff910c0                gzip_parse_header
 .text.zunzip   0x00000000eff91194      0x124 lib/built-in.o
                0x00000000eff91194                zunzip
 .text.gunzip   0x00000000eff912b8       0x6c lib/built-in.o
                0x00000000eff912b8                gunzip
 .text.addrmap_virt_to_phys
                0x00000000eff91324       0xc0 lib/built-in.o
                0x00000000eff91324                addrmap_virt_to_phys
 .text.addrmap_phys_to_virt
                0x00000000eff913e4       0xbc lib/built-in.o
                0x00000000eff913e4                addrmap_phys_to_virt
 .text.addrmap_set_entry
                0x00000000eff914a0       0x54 lib/built-in.o
                0x00000000eff914a0                addrmap_set_entry
 .text.cmpkey   0x00000000eff914f4       0x3c lib/built-in.o
 .text._hdelete.isra.0
                0x00000000eff91530       0x5c lib/built-in.o
 .text.drop_var_from_set.part.1
                0x00000000eff9158c       0x74 lib/built-in.o
 .text.match_string
                0x00000000eff91600       0xf0 lib/built-in.o
 .text.match_entry
                0x00000000eff916f0       0xec lib/built-in.o
 .text.hcreate_r
                0x00000000eff917dc       0xc4 lib/built-in.o
                0x00000000eff917dc                hcreate_r
 .text.hdestroy_r
                0x00000000eff918a0       0x90 lib/built-in.o
                0x00000000eff918a0                hdestroy_r
 .text.hsearch_r
                0x00000000eff91930      0x470 lib/built-in.o
                0x00000000eff91930                hsearch_r
 .text.hdelete_r
                0x00000000eff91da0      0x114 lib/built-in.o
                0x00000000eff91da0                hdelete_r
 .text.hexport_r
                0x00000000eff91eb4      0x2a4 lib/built-in.o
                0x00000000eff91eb4                hexport_r
 .text.himport_r
                0x00000000eff92158      0x428 lib/built-in.o
                0x00000000eff92158                himport_r
 .text.hwalk_r  0x00000000eff92580       0x6c lib/built-in.o
                0x00000000eff92580                hwalk_r
 .text.display_options_get_banner_priv
                0x00000000eff925ec       0xa4 lib/built-in.o
                0x00000000eff925ec                display_options_get_banner_priv
 .text.display_options_get_banner
                0x00000000eff92690       0x38 lib/built-in.o
                0x00000000eff92690                display_options_get_banner
 .text.display_options
                0x00000000eff926c8       0x4c lib/built-in.o
                0x00000000eff926c8                display_options
 .text.print_size
                0x00000000eff92714      0x144 lib/built-in.o
                0x00000000eff92714                print_size
 .text.print_buffer
                0x00000000eff92858      0x1c0 lib/built-in.o
                0x00000000eff92858                print_buffer
 .text.crc32_no_comp
                0x00000000eff92a18      0x13c lib/built-in.o
                0x00000000eff92a18                crc32_no_comp
 .text.crc32    0x00000000eff92b54       0x34 lib/built-in.o
                0x00000000eff92b54                crc32
 .text.crc32_wd
                0x00000000eff92b88       0x2c lib/built-in.o
                0x00000000eff92b88                crc32_wd
 .text.crc32_wd_buf
                0x00000000eff92bb4       0x50 lib/built-in.o
                0x00000000eff92bb4                crc32_wd_buf
 .text.__div64_32
                0x00000000eff92c04       0xd4 lib/built-in.o
                0x00000000eff92c04                __div64_32
 .text.hang     0x00000000eff92cd8       0x34 lib/built-in.o
                0x00000000eff92cd8                hang
 .text.skip_spaces
                0x00000000eff92d0c       0x48 lib/built-in.o
                0x00000000eff92d0c                skip_spaces
 .text.strim    0x00000000eff92d54       0x78 lib/built-in.o
                0x00000000eff92d54                strim
 .text.emit     0x00000000eff92dcc       0x50 lib/built-in.o
 .text.store_char_in_data
                0x00000000eff92e1c       0x54 lib/built-in.o
 .text.get_escape_char
                0x00000000eff92e70       0x78 lib/built-in.o
 .text.relocate
                0x00000000eff92ee8       0x60 lib/built-in.o
 .text.match    0x00000000eff92f48      0x410 lib/built-in.o
 .text.loop_greedy
                0x00000000eff93358       0x98 lib/built-in.o
 .text.loop_non_greedy
                0x00000000eff933f0       0x8c lib/built-in.o
 .text.quantifier
                0x00000000eff9347c       0xc4 lib/built-in.o
 .text.fixup_branch
                0x00000000eff93540       0x64 lib/built-in.o
 .text.compile  0x00000000eff935a4      0x37c lib/built-in.o
 .text.slre_compile
                0x00000000eff93920      0x100 lib/built-in.o
                0x00000000eff93920                slre_compile
 .text.slre_match
                0x00000000eff93a20       0x9c lib/built-in.o
                0x00000000eff93a20                slre_match
 .text.strncasecmp
                0x00000000eff93abc       0xac lib/built-in.o
                0x00000000eff93abc                strncasecmp
 .text.strcasecmp
                0x00000000eff93b68       0x30 lib/built-in.o
                0x00000000eff93b68                strcasecmp
 .text.strncat  0x00000000eff93b98       0x50 lib/built-in.o
                0x00000000eff93b98                strncat
 .text.strncmp  0x00000000eff93be8       0x40 lib/built-in.o
                0x00000000eff93be8                strncmp
 .text.strchr   0x00000000eff93c28       0x2c lib/built-in.o
                0x00000000eff93c28                strchr
 .text.strrchr  0x00000000eff93c54       0x58 lib/built-in.o
                0x00000000eff93c54                strrchr
 .text.strnlen  0x00000000eff93cac       0x2c lib/built-in.o
                0x00000000eff93cac                strnlen
 .text.strdup   0x00000000eff93cd8       0x5c lib/built-in.o
                0x00000000eff93cd8                strdup
 .text.strpbrk  0x00000000eff93d34       0x38 lib/built-in.o
                0x00000000eff93d34                strpbrk
 .text.strstr   0x00000000eff93d6c       0x88 lib/built-in.o
                0x00000000eff93d6c                strstr
 .text.udelay   0x00000000eff93df4       0x58 lib/built-in.o
                0x00000000eff93df4                udelay
 .text.rand_r   0x00000000eff93e4c       0x28 lib/built-in.o
                0x00000000eff93e4c                rand_r
 .text.put_dec_trunc
                0x00000000eff93e74       0xf0 lib/built-in.o
 .text.put_dec  0x00000000eff93f64      0x184 lib/built-in.o
 .text.number   0x00000000eff940e8      0x388 lib/built-in.o
 .text.string   0x00000000eff94470      0x138 lib/built-in.o
 .text.vsnprintf_internal
                0x00000000eff945a8      0xa7c lib/built-in.o
 .text.vsnprintf
                0x00000000eff95024        0x4 lib/built-in.o
                0x00000000eff95024                vsnprintf
 .text.vscnprintf
                0x00000000eff95028       0x48 lib/built-in.o
                0x00000000eff95028                vscnprintf
 .text.snprintf
                0x00000000eff95070       0x64 lib/built-in.o
                0x00000000eff95070                snprintf
 .text.vsprintf
                0x00000000eff950d4       0x14 lib/built-in.o
                0x00000000eff950d4                vsprintf
 .text.sprintf  0x00000000eff950e8       0x68 lib/built-in.o
                0x00000000eff950e8                sprintf
 .text.printf   0x00000000eff95150       0x90 lib/built-in.o
                0x00000000eff95150                printf
 .text.vprintf  0x00000000eff951e0       0x54 lib/built-in.o
                0x00000000eff951e0                vprintf
 .text.simple_itoa
                0x00000000eff95234       0x70 lib/built-in.o
                0x00000000eff95234                simple_itoa
 .text.str2off  0x00000000eff952a4       0x64 lib/built-in.o
                0x00000000eff952a4                str2off
 .text.str2long
                0x00000000eff95308       0x60 lib/built-in.o
                0x00000000eff95308                str2long
 .text.panic_finish
                0x00000000eff95368       0x4c lib/built-in.o
 .text.panic    0x00000000eff953b4       0x68 lib/built-in.o
                0x00000000eff953b4                panic
 .text._parse_integer_fixup_radix
                0x00000000eff9541c       0xd4 lib/built-in.o
 .text.simple_strtoul
                0x00000000eff954f0       0xa8 lib/built-in.o
                0x00000000eff954f0                simple_strtoul
 .text.strict_strtoul
                0x00000000eff95598       0x98 lib/built-in.o
                0x00000000eff95598                strict_strtoul
 .text.simple_strtol
                0x00000000eff95630       0x48 lib/built-in.o
                0x00000000eff95630                simple_strtol
 .text.ustrtoul
                0x00000000eff95678       0x9c lib/built-in.o
                0x00000000eff95678                ustrtoul
 .text.simple_strtoull
                0x00000000eff95714       0xcc lib/built-in.o
                0x00000000eff95714                simple_strtoull
 .text.ustrtoull
                0x00000000eff957e0       0xc0 lib/built-in.o
                0x00000000eff957e0                ustrtoull
 .text.trailing_strtoln
                0x00000000eff958a0       0xac lib/built-in.o
                0x00000000eff958a0                trailing_strtoln
 .text.trailing_strtol
                0x00000000eff9594c       0x30 lib/built-in.o
                0x00000000eff9594c                trailing_strtol
 .text.strmhz   0x00000000eff9597c       0x78 lib/built-in.o
                0x00000000eff9597c                strmhz
 .text.compute_ip_checksum
                0x00000000eff959f4       0xa4 net/built-in.o
                0x00000000eff959f4                compute_ip_checksum
 .text.ip_checksum_ok
                0x00000000eff95a98       0x38 net/built-in.o
                0x00000000eff95a98                ip_checksum_ok
 .text.arp_init
                0x00000000eff95ad0       0x64 net/built-in.o
                0x00000000eff95ad0                arp_init
 .text.arp_raw_request
                0x00000000eff95b34       0xcc net/built-in.o
                0x00000000eff95b34                arp_raw_request
 .text.arp_request
                0x00000000eff95c00       0xa0 net/built-in.o
                0x00000000eff95c00                arp_request
 .text.arp_timeout_check
                0x00000000eff95ca0       0xa0 net/built-in.o
                0x00000000eff95ca0                arp_timeout_check
 .text.arp_receive
                0x00000000eff95d40      0x1f4 net/built-in.o
                0x00000000eff95d40                arp_receive
 .text.bootp_handler
                0x00000000eff95f34      0x3ac net/built-in.o
 .text.bootp_reset
                0x00000000eff962e0       0x58 net/built-in.o
                0x00000000eff962e0                bootp_reset
 .text.bootp_request
                0x00000000eff96338      0x284 net/built-in.o
                0x00000000eff96338                bootp_request
 .text.bootp_timeout_handler
                0x00000000eff965bc       0x84 net/built-in.o
 .text.__def_eth_init
                0x00000000eff96640        0x8 net/built-in.o
 .text.eth_set_current_to_next
                0x00000000eff96648       0x3c net/built-in.o
                0x00000000eff96648                eth_set_current_to_next
 .text.eth_set_dev
                0x00000000eff96684       0x34 net/built-in.o
                0x00000000eff96684                eth_set_dev
 .text.eth_get_dev_by_name
                0x00000000eff966b8       0x90 net/built-in.o
                0x00000000eff966b8                eth_get_dev_by_name
 .text.eth_get_dev_index
                0x00000000eff96748       0x44 net/built-in.o
                0x00000000eff96748                eth_get_dev_index
 .text.eth_write_hwaddr
                0x00000000eff9678c      0x28c net/built-in.o
                0x00000000eff9678c                eth_write_hwaddr
 .text.on_ethaddr
                0x00000000eff96a18       0xc0 net/built-in.o
 .text.eth_register
                0x00000000eff96ad8       0x9c net/built-in.o
                0x00000000eff96ad8                eth_register
 .text.eth_initialize
                0x00000000eff96b74      0x194 net/built-in.o
                0x00000000eff96b74                eth_initialize
 .text.eth_init
                0x00000000eff96d08       0x90 net/built-in.o
                0x00000000eff96d08                eth_init
 .text.eth_halt
                0x00000000eff96d98       0x50 net/built-in.o
                0x00000000eff96d98                eth_halt
 .text.eth_send
                0x00000000eff96de8       0x58 net/built-in.o
                0x00000000eff96de8                eth_send
 .text.eth_rx   0x00000000eff96e40       0x4c net/built-in.o
                0x00000000eff96e40                eth_rx
 .text.eth_parse_enetaddr
                0x00000000eff96e8c       0x7c net/built-in.o
                0x00000000eff96e8c                eth_parse_enetaddr
 .text.eth_env_get_enetaddr
                0x00000000eff96f08       0x7c net/built-in.o
                0x00000000eff96f08                eth_env_get_enetaddr
 .text.eth_env_set_enetaddr
                0x00000000eff96f84       0x68 net/built-in.o
                0x00000000eff96f84                eth_env_set_enetaddr
 .text.eth_env_get_enetaddr_by_index
                0x00000000eff96fec       0x5c net/built-in.o
                0x00000000eff96fec                eth_env_get_enetaddr_by_index
 .text.eth_env_set_enetaddr_by_index
                0x00000000eff97048       0x5c net/built-in.o
                0x00000000eff97048                eth_env_set_enetaddr_by_index
 .text.eth_common_init
                0x00000000eff970a4       0x38 net/built-in.o
                0x00000000eff970a4                eth_common_init
 .text.eth_mac_skip
                0x00000000eff970dc       0x54 net/built-in.o
                0x00000000eff970dc                eth_mac_skip
 .text.eth_get_name
                0x00000000eff97130       0x44 net/built-in.o
                0x00000000eff97130                eth_get_name
 .text.eth_current_changed
                0x00000000eff97174       0xac net/built-in.o
                0x00000000eff97174                eth_current_changed
 .text.eth_try_another
                0x00000000eff97220       0xa0 net/built-in.o
                0x00000000eff97220                eth_try_another
 .text.eth_set_current
                0x00000000eff972c0       0xa8 net/built-in.o
                0x00000000eff972c0                eth_set_current
 .text.start_again_timeout_handler
                0x00000000eff97368       0x38 net/built-in.o
 .text.dummy_handler
                0x00000000eff973a0        0x4 net/built-in.o
 .text.on_ipaddr
                0x00000000eff973a4       0x50 net/built-in.o
 .text.on_gatewayip
                0x00000000eff973f4       0x50 net/built-in.o
 .text.on_netmask
                0x00000000eff97444       0x50 net/built-in.o
 .text.on_serverip
                0x00000000eff97494       0x50 net/built-in.o
 .text.net_init_loop
                0x00000000eff974e4       0x48 net/built-in.o
 .text.net_auto_load
                0x00000000eff9752c       0x78 net/built-in.o
                0x00000000eff9752c                net_auto_load
 .text.net_set_udp_handler
                0x00000000eff975a4       0x48 net/built-in.o
                0x00000000eff975a4                net_set_udp_handler
 .text.net_get_arp_handler
                0x00000000eff975ec       0x34 net/built-in.o
                0x00000000eff975ec                net_get_arp_handler
 .text.net_set_arp_handler
                0x00000000eff97620       0x48 net/built-in.o
                0x00000000eff97620                net_set_arp_handler
 .text.net_set_timeout_handler
                0x00000000eff97668       0x68 net/built-in.o
                0x00000000eff97668                net_set_timeout_handler
 .text.net_clear_handlers
                0x00000000eff976d0       0x44 net/built-in.o
 .text.net_init
                0x00000000eff97714       0x8c net/built-in.o
                0x00000000eff97714                net_init
 .text.net_start_again
                0x00000000eff977a0      0x13c net/built-in.o
                0x00000000eff977a0                net_start_again
 .text.net_loop
                0x00000000eff978dc      0x308 net/built-in.o
                0x00000000eff978dc                net_loop
 .text.net_process_received_packet
                0x00000000eff97be4      0x230 net/built-in.o
                0x00000000eff97be4                net_process_received_packet
 .text.net_eth_hdr_size
                0x00000000eff97e14       0x5c net/built-in.o
                0x00000000eff97e14                net_eth_hdr_size
 .text.net_set_ether
                0x00000000eff97e70       0x90 net/built-in.o
                0x00000000eff97e70                net_set_ether
 .text.net_update_ether
                0x00000000eff97f00       0x80 net/built-in.o
                0x00000000eff97f00                net_update_ether
 .text.net_set_ip_header
                0x00000000eff97f80       0xa0 net/built-in.o
                0x00000000eff97f80                net_set_ip_header
 .text.net_set_udp_header
                0x00000000eff98020       0xac net/built-in.o
                0x00000000eff98020                net_set_udp_header
 .text.net_send_udp_packet
                0x00000000eff980cc      0x110 net/built-in.o
                0x00000000eff980cc                net_send_udp_packet
 .text.copy_filename
                0x00000000eff981dc       0x60 net/built-in.o
                0x00000000eff981dc                copy_filename
 .text.on_bootfile
                0x00000000eff9823c       0x50 net/built-in.o
 .text.ip_to_string
                0x00000000eff9828c       0x48 net/built-in.o
                0x00000000eff9828c                ip_to_string
 .text.string_to_vlan
                0x00000000eff982d4       0x68 net/built-in.o
                0x00000000eff982d4                string_to_vlan
 .text.on_nvlan
                0x00000000eff9833c       0x4c net/built-in.o
 .text.on_vlan  0x00000000eff98388       0x4c net/built-in.o
 .text.rpc_lookup_reply
                0x00000000eff983d4       0xb8 net/built-in.o
 .text.nfs_mount_reply
                0x00000000eff9848c       0xb0 net/built-in.o
 .text.nfs_umountall_reply
                0x00000000eff9853c       0xa0 net/built-in.o
 .text.nfs_lookup_reply
                0x00000000eff985dc      0x11c net/built-in.o
 .text.nfs_readlink_reply
                0x00000000eff986f8      0x14c net/built-in.o
 .text.basename
                0x00000000eff98844       0x5c net/built-in.o
 .text.rpc_req  0x00000000eff988a0      0x114 net/built-in.o
 .text.rpc_lookup_req
                0x00000000eff989b4       0x5c net/built-in.o
 .text.nfs_umountall_req
                0x00000000eff98a10       0x90 net/built-in.o
 .text.nfs_read_reply.isra.0
                0x00000000eff98aa0      0x184 net/built-in.o
 .text.nfs_readlink_req
                0x00000000eff98c24       0xcc net/built-in.o
 .text.nfs_mount_req
                0x00000000eff98cf0       0xd0 net/built-in.o
 .text.nfs_read_req
                0x00000000eff98dc0       0xf0 net/built-in.o
 .text.nfs_lookup_req
                0x00000000eff98eb0      0x164 net/built-in.o
 .text.nfs_send
                0x00000000eff99014      0x104 net/built-in.o
 .text.nfs_handler
                0x00000000eff99118      0x248 net/built-in.o
 .text.nfs_timeout_handler
                0x00000000eff99360       0x7c net/built-in.o
 .text.nfs_start
                0x00000000eff993dc      0x15c net/built-in.o
                0x00000000eff993dc                nfs_start
 .text.ping_timeout_handler
                0x00000000eff99538       0x38 net/built-in.o
 .text.ping_start
                0x00000000eff99570      0x124 net/built-in.o
                0x00000000eff99570                ping_start
 .text.ping_receive
                0x00000000eff99694       0xf0 net/built-in.o
                0x00000000eff99694                ping_receive
 .text.tftp_send
                0x00000000eff99784      0x18c net/built-in.o
 .text.tftp_handler
                0x00000000eff99910      0x360 net/built-in.o
 .text.tftp_timeout_handler
                0x00000000eff99c70       0x98 net/built-in.o
 .text.tftp_start
                0x00000000eff99d08      0x32c net/built-in.o
                0x00000000eff99d08                tftp_start
 *fill*         0x00000000eff9a034        0xc 
 .text          0x00000000eff9a040       0x44 /usr/lib/gcc-cross/powerpc-linux-gnu/5/libgcc.a(_lshrdi3.o)
                0x00000000eff9a040                __lshrdi3
 *fill*         0x00000000eff9a084        0xc 
 .text          0x00000000eff9a090       0x44 /usr/lib/gcc-cross/powerpc-linux-gnu/5/libgcc.a(_ashldi3.o)
                0x00000000eff9a090                __ashldi3
 .text          0x00000000eff9a0d4       0x58 /usr/lib/gcc-cross/powerpc-linux-gnu/5/libgcc.a(crtresxgpr.o)
                0x00000000eff9a0d4                _restgpr_14_x
                0x00000000eff9a0d8                _restgpr_15_x
                0x00000000eff9a0dc                _restgpr_16_x
                0x00000000eff9a0e0                _restgpr_17_x
                0x00000000eff9a0e4                _restgpr_18_x
                0x00000000eff9a0e8                _restgpr_19_x
                0x00000000eff9a0ec                _restgpr_20_x
                0x00000000eff9a0f0                _restgpr_21_x
                0x00000000eff9a0f4                _restgpr_22_x
                0x00000000eff9a0f8                _restgpr_23_x
                0x00000000eff9a0fc                _restgpr_24_x
                0x00000000eff9a100                _restgpr_25_x
                0x00000000eff9a104                _restgpr_26_x
                0x00000000eff9a108                _restgpr_27_x
                0x00000000eff9a10c                _restgpr_28_x
                0x00000000eff9a110                _restgpr_29_x
                0x00000000eff9a114                _restgpr_30_x
                0x00000000eff9a118                _restgpr_31_x
                0x00000000eff9a12c                _etext = .
                [!provide]                        PROVIDE (etext, .)

.glink          0x00000000eff9a12c        0x0
 .glink         0x00000000eff9a12c        0x0 arch/powerpc/cpu/mpc85xx/start.o

.rodata         0x00000000eff9a12c    0x11d3e
 *(SORT(.rodata*))
 .rodata        0x00000000eff9a12c        0x8 drivers/built-in.o
 .rodata.CSWTCH.23
                0x00000000eff9a134       0x16 common/built-in.o
 *fill*         0x00000000eff9a14a        0x2 
 .rodata.__FUNCTION__.7976
                0x00000000eff9a14c       0x18 drivers/ddr/fsl/built-in.o
 .rodata.__FUNCTION__.8159
                0x00000000eff9a164       0x17 common/built-in.o
 *fill*         0x00000000eff9a17b        0x1 
 .rodata.__FUNCTION__.8322
                0x00000000eff9a17c       0x17 common/built-in.o
 *fill*         0x00000000eff9a193        0x1 
 .rodata.__func__.7515
                0x00000000eff9a194        0xb fs/built-in.o
 *fill*         0x00000000eff9a19f        0x1 
 .rodata.__func__.7646
                0x00000000eff9a1a0        0xe common/built-in.o
 *fill*         0x00000000eff9a1ae        0x2 
 .rodata.__func__.7705
                0x00000000eff9a1b0        0x8 arch/powerpc/cpu/mpc85xx/built-in.o
 .rodata.__func__.7923
                0x00000000eff9a1b8       0x11 arch/powerpc/cpu/mpc85xx/built-in.o
 *fill*         0x00000000eff9a1c9        0x3 
 .rodata.__func__.8015
                0x00000000eff9a1cc       0x18 common/built-in.o
 .rodata.__func__.8027
                0x00000000eff9a1e4       0x11 common/built-in.o
 *fill*         0x00000000eff9a1f5        0x3 
 .rodata.__func__.8076
                0x00000000eff9a1f8       0x14 net/built-in.o
 .rodata.__func__.8271
                0x00000000eff9a20c       0x14 drivers/ddr/fsl/built-in.o
 .rodata.__func__.9211
                0x00000000eff9a220        0xb cmd/built-in.o
 *fill*         0x00000000eff9a22b        0x1 
 .rodata.__func__.9366
                0x00000000eff9a22c        0xf drivers/mtd/built-in.o
 *fill*         0x00000000eff9a23b        0x1 
 .rodata.__func__.9405
                0x00000000eff9a23c       0x11 drivers/mtd/built-in.o
 *fill*         0x00000000eff9a24d        0x3 
 .rodata.__func__.9523
                0x00000000eff9a250       0x15 common/built-in.o
 *fill*         0x00000000eff9a265        0x3 
 .rodata.__func__.9559
                0x00000000eff9a268        0x9 drivers/built-in.o
 *fill*         0x00000000eff9a271        0x3 
 .rodata.__func__.9651
                0x00000000eff9a274       0x17 drivers/usb/host/built-in.o
 *fill*         0x00000000eff9a28b        0x1 
 .rodata._ctype
                0x00000000eff9a28c      0x100 lib/built-in.o
                0x00000000eff9a28c                _ctype
 .rodata.baudrate_table
                0x00000000eff9a38c       0x28 drivers/serial/built-in.o
 .rodata.binary_test
                0x00000000eff9a3b4       0x30 cmd/built-in.o
 .rodata.cli_readline_into_buffer
                0x00000000eff9a3e4       0x80 common/built-in.o
 .rodata.crc_table
                0x00000000eff9a464      0x400 lib/built-in.o
 .rodata.default_environment
                0x00000000eff9a864      0x722 env/built-in.o
                0x00000000eff9a864                default_environment
 *fill*         0x00000000eff9af86        0x2 
 .rodata.dev_print
                0x00000000eff9af88       0x30 disk/built-in.o
 .rodata.devdisr_mask
                0x00000000eff9afb8       0x10 drivers/pci/built-in.o
 .rodata.digits.8433
                0x00000000eff9afc8       0x10 lib/built-in.o
 .rodata.do_fdt
                0x00000000eff9afd8       0x24 cmd/built-in.o
 .rodata.do_test
                0x00000000eff9affc       0x34 cmd/built-in.o
 .rodata.e1000_init
                0x00000000eff9b030       0x64 drivers/net/built-in.o
 .rodata.e1000_init_eeprom_params
                0x00000000eff9b094       0x48 drivers/net/built-in.o
 .rodata.env_flags_validate
                0x00000000eff9b0dc       0x18 env/built-in.o
 .rodata.env_flags_varaccess_mask
                0x00000000eff9b0f4       0x10 env/built-in.o
 .rodata.env_flags_varaccess_rep
                0x00000000eff9b104        0x5 env/built-in.o
 *fill*         0x00000000eff9b109        0x3 
 .rodata.env_flags_vartype_rep
                0x00000000eff9b10c        0x7 env/built-in.o
 *fill*         0x00000000eff9b113        0x1 
 .rodata.erase_seq
                0x00000000eff9b114        0x4 common/built-in.o
 .rodata.ext_csd_bus_width
                0x00000000eff9b118       0x3c drivers/built-in.o
 .rodata.fbase  0x00000000eff9b154       0x10 drivers/built-in.o
 .rodata.fdt_next_tag
                0x00000000eff9b164       0x24 lib/built-in.o
 .rodata.file_fat_detectfs
                0x00000000eff9b188       0x20 fs/built-in.o
 .rodata.flash_offset_cfi
                0x00000000eff9b1a8        0x8 drivers/mtd/built-in.o
 .rodata.freqs.9130
                0x00000000eff9b1b0       0x18 drivers/built-in.o
 .rodata.hex_asc
                0x00000000eff9b1c8       0x11 lib/built-in.o
 *fill*         0x00000000eff9b1d9        0x3 
 .rodata.i2c_base
                0x00000000eff9b1dc       0x10 drivers/i2c/built-in.o
 .rodata.inflate
                0x00000000eff9b1ec       0x74 lib/built-in.o
 .rodata.kbd_plain_xlate
                0x00000000eff9b260       0x64 drivers/built-in.o
 .rodata.kbd_plain_xlate_german
                0x00000000eff9b2c4       0x84 drivers/built-in.o
 .rodata.match  0x00000000eff9b348       0x44 lib/built-in.o
 .rodata.mmc_modes_by_pref
                0x00000000eff9b38c       0x20 drivers/built-in.o
 .rodata.mmc_set_capacity
                0x00000000eff9b3ac       0x20 drivers/built-in.o
 .rodata.mmc_startup
                0x00000000eff9b3cc       0x14 drivers/built-in.o
 .rodata.mmc_versions.9481
                0x00000000eff9b3e0       0x20 drivers/built-in.o
 .rodata.month_offset
                0x00000000eff9b400       0x30 drivers/built-in.o
 .rodata.multipliers
                0x00000000eff9b430       0x10 drivers/built-in.o
 .rodata.names.7584
                0x00000000eff9b440        0x6 lib/built-in.o
 *fill*         0x00000000eff9b446        0x2 
 .rodata.net_loop
                0x00000000eff9b448       0x38 net/built-in.o
 .rodata.nfs_handler
                0x00000000eff9b480       0x1c net/built-in.o
 .rodata.nfs_send
                0x00000000eff9b49c       0x1c net/built-in.o
 .rodata.part_print
                0x00000000eff9b4b8       0x2c disk/built-in.o
 .rodata.part_set_generic_name
                0x00000000eff9b4e4       0x20 disk/built-in.o
 .rodata.sd_au_size.9369
                0x00000000eff9b504       0x40 drivers/built-in.o
 .rodata.sd_modes_by_pref
                0x00000000eff9b544       0x10 drivers/built-in.o
 .rodata.sec_rev_prop_list.7449
                0x00000000eff9b554       0x8c drivers/built-in.o
 .rodata.serial_ports
                0x00000000eff9b5e0       0x18 drivers/serial/built-in.o
 .rodata.sha1_padding
                0x00000000eff9b5f8       0x40 lib/built-in.o
 .rodata.srec_decode
                0x00000000eff9b638       0x28 common/built-in.o
 .rodata.tab_seq
                0x00000000eff9b660        0x9 common/built-in.o
 *fill*         0x00000000eff9b669        0x3 
 .rodata.tftp_send
                0x00000000eff9b66c       0x1c net/built-in.o
 .rodata.us_direction
                0x00000000eff9b688       0x20 common/built-in.o
 .rodata.usb_display_class_sub
                0x00000000eff9b6a8       0x18 cmd/built-in.o
 .rodata.xyzModem_error
                0x00000000eff9b6c0       0x20 common/built-in.o
 .rodata.crc16_tab
                0x00000000eff9b6e0      0x200 lib/built-in.o
 .rodata.dbase.7803
                0x00000000eff9b8e0       0x40 lib/built-in.o
 .rodata.dext.7804
                0x00000000eff9b920       0x40 lib/built-in.o
 .rodata.distfix
                0x00000000eff9b960       0x80 lib/built-in.o
 .rodata.lbase.7801
                0x00000000eff9b9e0       0x3e lib/built-in.o
 .rodata.lenfix
                0x00000000eff9ba1e      0x800 lib/built-in.o
 .rodata.lext.7802
                0x00000000eff9c21e       0x3e lib/built-in.o
 .rodata.order.7897
                0x00000000eff9c25c       0x26 lib/built-in.o
 .rodata.str2.2
                0x00000000eff9c282        0xe lib/built-in.o
 .rodata        0x00000000eff9c290       0x3f drivers/usb/host/built-in.o
 .rodata        0x00000000eff9c2cf        0x3 env/built-in.o
 .rodata        0x00000000eff9c2d2        0x7 net/built-in.o
 .rodata.serdes1_cfg_tbl
                0x00000000eff9c2d9       0x40 arch/powerpc/cpu/mpc85xx/built-in.o
 .rodata.str1.1
                0x00000000eff9c319      0x178 arch/powerpc/cpu/built-in.o
                                        0x194 (size before relaxing)
 .rodata.str1.1
                0x00000000eff9c491      0xbaf arch/powerpc/cpu/mpc85xx/built-in.o
                                        0xc24 (size before relaxing)
 .rodata.str1.1
                0x00000000eff9d040       0x88 arch/powerpc/lib/built-in.o
 .rodata.str1.1
                0x00000000eff9d0c8      0x127 board/freescale/p1_p2_rdb_pc/built-in.o
 .rodata.str1.1
                0x00000000eff9d1ef     0x6ee8 cmd/built-in.o
                                       0x74dc (size before relaxing)
 .rodata.str1.1
                0x00000000effa40d7     0x2d47 common/built-in.o
                                       0x3196 (size before relaxing)
 .rodata.str1.1
                0x00000000effa6e1e      0x472 disk/built-in.o
                                        0x4ab (size before relaxing)
 .rodata.str1.1
                0x00000000effa7290      0xc0f drivers/built-in.o
                                        0xc9c (size before relaxing)
 .rodata.str1.1
                0x00000000effa7e9f      0x765 drivers/ddr/fsl/built-in.o
                                        0x7cc (size before relaxing)
 .rodata.str1.1
                0x00000000effa8604       0x39 drivers/i2c/built-in.o
 .rodata.str1.1
                0x00000000effa863d      0x5be drivers/mtd/built-in.o
                                        0x64d (size before relaxing)
 .rodata.str1.1
                0x00000000effa8bfb      0xbf8 drivers/mtd/nand/built-in.o
                                        0xc34 (size before relaxing)
 .rodata.str1.1
                0x00000000effa97f3      0x290 drivers/mtd/spi/built-in.o
                                        0x293 (size before relaxing)
 .rodata.str1.1
                0x00000000effa9a83      0x32d drivers/net/built-in.o
                                        0x356 (size before relaxing)
 .rodata.str1.1
                0x00000000effa9db0      0x1bc drivers/net/phy/built-in.o
                                        0x242 (size before relaxing)
 .rodata.str1.1
                0x00000000effa9f6c      0x34a drivers/pci/built-in.o
                                        0x35e (size before relaxing)
 .rodata.str1.1
                0x00000000effaa2b6       0x57 drivers/serial/built-in.o
                                         0x92 (size before relaxing)
 .rodata.str1.1
                0x00000000effaa30d       0xf6 drivers/usb/common/built-in.o
                                        0x118 (size before relaxing)
 .rodata.str1.1
                0x00000000effaa403      0x2aa drivers/usb/host/built-in.o
                                        0x2b8 (size before relaxing)
 .rodata.str1.1
                0x00000000effaa6ad      0x3c7 env/built-in.o
                                        0x44b (size before relaxing)
 .rodata.str1.1
                0x00000000effaaa74      0x5c3 fs/built-in.o
                                        0x62d (size before relaxing)
 .rodata.str1.1
                0x00000000effab037      0x6eb lib/built-in.o
                                        0x776 (size before relaxing)
 .rodata.str1.1
                0x00000000effab722      0x748 net/built-in.o
                                        0x841 (size before relaxing)

.eh_frame       0x00000000effabe6c        0x0
 .eh_frame      0x00000000effabe6c        0x0 arch/powerpc/cpu/mpc85xx/start.o

.rela.dyn       0x00000000effabe6c        0x0
 .rela.iplt     0x00000000effabe6c        0x0 arch/powerpc/cpu/mpc85xx/start.o
 .rela.got      0x00000000effabe6c        0x0 arch/powerpc/cpu/mpc85xx/start.o
 .rela.got2     0x00000000effabe6c        0x0 arch/powerpc/cpu/mpc85xx/start.o
 .rela.u_boot_list_2_cmd_2_run
                0x00000000effabe6c        0x0 arch/powerpc/cpu/mpc85xx/start.o
 .rela.data.rel.cmd_env_sub
                0x00000000effabe6c        0x0 arch/powerpc/cpu/mpc85xx/start.o
 .rela.data.rel.hash_algo
                0x00000000effabe6c        0x0 arch/powerpc/cpu/mpc85xx/start.o
 .rela.data.rel.ro.init_sequence_f
                0x00000000effabe6c        0x0 arch/powerpc/cpu/mpc85xx/start.o
 .rela.data.rel.init_sequence_r
                0x00000000effabe6c        0x0 arch/powerpc/cpu/mpc85xx/start.o
 .rela.u_boot_list_2_blk_driver_2_sata
                0x00000000effabe6c        0x0 arch/powerpc/cpu/mpc85xx/start.o
                0x00000000effabf00                . = ((. + 0xff) & 0xffffff00)
                0x00000000effabf00                _erotext = .
                [!provide]                        PROVIDE (erotext, .)

.reloc          0x00000000effabf00     0x41d8
                0x00000000effabf00                _GOT2_TABLE_ = .
 *(.got2)
 .got2          0x00000000effabf00       0x24 arch/powerpc/cpu/mpc85xx/start.o
 .got2          0x00000000effabf24        0x0 /usr/lib/gcc-cross/powerpc-linux-gnu/5/libgcc.a(_lshrdi3.o)
 .got2          0x00000000effabf24        0x0 /usr/lib/gcc-cross/powerpc-linux-gnu/5/libgcc.a(_ashldi3.o)
 .got2          0x00000000effabf24        0x0 /usr/lib/gcc-cross/powerpc-linux-gnu/5/libgcc.a(_ashrdi3.o)
 *(.got)
 .got           0x00000000effabf24     0x2920 arch/powerpc/cpu/mpc85xx/start.o
                0x00000000effae838                _GLOBAL_OFFSET_TABLE_
                0x00000000effae844                _FIXUP_TABLE_ = .
 *(.fixup)
 .fixup         0x00000000effae844       0x44 arch/powerpc/cpu/built-in.o
 .fixup         0x00000000effae888      0x9f0 cmd/built-in.o
 .fixup         0x00000000effaf278      0x88c common/built-in.o
 .fixup         0x00000000effafb04       0x10 disk/built-in.o
 .fixup         0x00000000effafb14       0x88 drivers/built-in.o
 .fixup         0x00000000effafb9c       0x20 drivers/ddr/fsl/built-in.o
 .fixup         0x00000000effafbbc       0x30 drivers/i2c/built-in.o
 .fixup         0x00000000effafbec        0x8 drivers/mtd/built-in.o
 .fixup         0x00000000effafbf4      0x1ac drivers/mtd/nand/built-in.o
 .fixup         0x00000000effafda0       0x4c drivers/mtd/spi/built-in.o
 .fixup         0x00000000effafdec       0x20 drivers/net/built-in.o
 .fixup         0x00000000effafe0c      0x11c drivers/net/phy/built-in.o
 .fixup         0x00000000effaff28       0x38 drivers/serial/built-in.o
 .fixup         0x00000000effaff60       0x24 drivers/usb/common/built-in.o
 .fixup         0x00000000effaff84       0x24 env/built-in.o
 .fixup         0x00000000effaffa8       0x80 fs/built-in.o
 .fixup         0x00000000effb0028       0x70 lib/built-in.o
 .fixup         0x00000000effb0098       0x40 net/built-in.o
                0x0000000000000a4d                __got2_entries = (((_GLOBAL_OFFSET_TABLE_ - _GOT2_TABLE_) >> 0x2) - 0x1)
                0x0000000000000625                __fixup_entries = ((. - _FIXUP_TABLE_) >> 0x2)

.data           0x00000000effb00d8     0x5ef8
 *(.data*)
 .data.cpu_type_list
                0x00000000effb00d8      0x78c arch/powerpc/cpu/built-in.o
 .data.cpu_type_unknown
                0x00000000effb0864       0x1c arch/powerpc/cpu/built-in.o
 .data.rel.ro.local.phy_interface_strings
                0x00000000effb0880       0x44 arch/powerpc/cpu/built-in.o
 *fill*         0x00000000effb08c4        0x4 
 .data.law_table
                0x00000000effb08c8       0x78 board/freescale/p1_p2_rdb_pc/built-in.o
                0x00000000effb08c8                law_table
 .data.tlb_table
                0x00000000effb0940      0x104 board/freescale/p1_p2_rdb_pc/built-in.o
                0x00000000effb0940                tlb_table
 .data.rel.local.cmd_bootm_sub
                0x00000000effb0a44       0xd8 cmd/built-in.o
 .data.bootm_help_text
                0x00000000effb0b1c      0x4cf cmd/built-in.o
 *fill*         0x00000000effb0feb        0x1 
 .data.source_help_text
                0x00000000effb0fec       0xac cmd/built-in.o
 .data.rel.ro.local.weekdays
                0x00000000effb1098       0x1c cmd/built-in.o
 .data.default_tm
                0x00000000effb10b4       0x24 cmd/built-in.o
 .data.tabs.7620
                0x00000000effb10d8       0x21 cmd/built-in.o
 *fill*         0x00000000effb10f9        0x3 
 .data.root.7535
                0x00000000effb10fc        0x2 cmd/built-in.o
 *fill*         0x00000000effb10fe        0x2 
 .data.fdt_help_text
                0x00000000effb1100      0x649 cmd/built-in.o
 *fill*         0x00000000effb1749        0x3 
 .data.i2c_help_text
                0x00000000effb174c      0x37c cmd/built-in.o
 .data.i2c_dp_last_length
                0x00000000effb1ac8        0x4 cmd/built-in.o
 .data.rel.local.cmd_i2c_sub
                0x00000000effb1acc      0x138 cmd/built-in.o
 .data.rel.ro.local.op_table
                0x00000000effb1c04       0x68 cmd/built-in.o
 .data.do_echo  0x00000000effb1c6c        0x4 cmd/built-in.o
 .data.dp_last_length
                0x00000000effb1c70        0x4 cmd/built-in.o
 .data.rel.ro.local.reg_0_desc_tbl
                0x00000000effb1c74       0x78 cmd/built-in.o
 .data.rel.ro.local.reg_5_desc_tbl
                0x00000000effb1cec       0x90 cmd/built-in.o
 .data.rel.ro.local.reg_4_desc_tbl
                0x00000000effb1d7c       0x90 cmd/built-in.o
 .data.rel.ro.local.reg_1_desc_tbl
                0x00000000effb1e0c       0xc0 cmd/built-in.o
 .data.rel.ro.local.reg_2_desc_tbl
                0x00000000effb1ecc        0xc cmd/built-in.o
 .data.rel.ro.local.reg_3_desc_tbl
                0x00000000effb1ed8       0x24 cmd/built-in.o
 .data.rel.ro.local.reg_0_5_desc_tbl
                0x00000000effb1efc       0x30 cmd/built-in.o
 .data.rel.ro.local.desc_and_len_tbl
                0x00000000effb1f2c       0x30 cmd/built-in.o
 .data.rel.local.cmd_mmc
                0x00000000effb1f5c       0xf0 cmd/built-in.o
 .data.curr_device
                0x00000000effb204c        0x4 cmd/built-in.o
 .data.cpu_help_text
                0x00000000effb2050      0x2cb cmd/built-in.o
 *fill*         0x00000000effb231b        0x1 
 .data.mtdparts_help_text
                0x00000000effb231c      0x4d3 cmd/built-in.o
 *fill*         0x00000000effb27ef        0x1 
 .data.nand_help_text
                0x00000000effb27f0      0x3ee cmd/built-in.o
 *fill*         0x00000000effb2bde        0x2 
 .data.rel.local.regs_bridge
                0x00000000effb2be0       0xfc cmd/built-in.o
 .data.rel.local.regs_start
                0x00000000effb2cdc       0x48 cmd/built-in.o
 .data.pci_help_text
                0x00000000effb2d24      0x1cb cmd/built-in.o
 *fill*         0x00000000effb2eef        0x1 
 .data.rel.local.regs_rest
                0x00000000effb2ef0       0x60 cmd/built-in.o
 .data.rel.local.regs_cardbus
                0x00000000effb2f50      0x12c cmd/built-in.o
 .data.rel.local.regs_normal
                0x00000000effb307c       0xa8 cmd/built-in.o
 .data.sata_curr_device
                0x00000000effb3124        0x4 cmd/built-in.o
 .data.rel.ro.local.op_adv
                0x00000000effb3128      0x100 cmd/built-in.o
                0x00000000effb3128                op_adv
 .data.usb_stor_curr_dev
                0x00000000effb3228        0x4 cmd/built-in.o
 .data.imgextract_help_text
                0x00000000effb322c       0xb2 cmd/built-in.o
 *fill*         0x00000000effb32de        0x2 
 .data.env_help_text
                0x00000000effb32e0      0x24f cmd/built-in.o
 *fill*         0x00000000effb352f        0x1 
 .data.env_id   0x00000000effb3530        0x4 cmd/built-in.o
 .data.rel.cmd_env_sub
                0x00000000effb3534       0xf0 cmd/built-in.o
 .data.rel.hash_algo
                0x00000000effb3624       0x54 common/built-in.o
 .data.rel.ro.local
                0x00000000effb3678        0x4 common/built-in.o
 .data.rel.local.reserved_list
                0x00000000effb367c       0x84 common/built-in.o
 .data.rel.ro.init_sequence_f
                0x00000000effb3700       0xbc common/built-in.o
 .data.rel.init_sequence_r
                0x00000000effb37bc       0x78 common/built-in.o
 .data.rel.ro.boot_os
                0x00000000effb3834       0x60 common/built-in.o
 .data.rel.of_busses
                0x00000000effb3894       0x18 common/built-in.o
 .data.rel.local.usb_scan_list
                0x00000000effb38ac        0x8 common/built-in.o
 .data.hist_cur
                0x00000000effb38b4        0x4 common/built-in.o
 .data.trim_threshold
                0x00000000effb38b8        0x4 common/built-in.o
 .data.sbrk_base
                0x00000000effb38bc        0x4 common/built-in.o
 .data.rel.local.av_
                0x00000000effb38c0      0x408 common/built-in.o
 .data.rel.ro.local.uimage_os
                0x00000000effb3cc8       0x84 common/built-in.o
 .data.rel.ro.local.uimage_type
                0x00000000effb3d4c      0x18c common/built-in.o
 .data.rel.ro.local.table_info
                0x00000000effb3ed8       0x30 common/built-in.o
 .data.rel.ro.local.uimage_comp
                0x00000000effb3f08       0x54 common/built-in.o
 .data.rel.ro.local.uimage_arch
                0x00000000effb3f5c      0x138 common/built-in.o
 .data.rel.local.stdio_names
                0x00000000effb4094        0xc common/built-in.o
                0x00000000effb4094                stdio_names
 .data.rel.ro.local.spd_str.8186
                0x00000000effb40a0        0xc drivers/built-in.o
 .data.supported
                0x00000000effb40ac       0x70 drivers/built-in.o
 .data.rel.ro.local.names.9125
                0x00000000effb411c       0x30 drivers/built-in.o
 .data.cur_dev_num
                0x00000000effb414c        0x4 drivers/built-in.o
 .data.rel.ro.local.esdhc_ops
                0x00000000effb4150       0x14 drivers/built-in.o
 .data.month_days
                0x00000000effb4164       0x30 drivers/built-in.o
 .data.rel.ro.local.kbd_to_ansi364
                0x00000000effb4194       0x20 drivers/built-in.o
 .data.kbd_ctrl_xlate
                0x00000000effb41b4       0x64 drivers/built-in.o
 .data.rel.local.kbd_entry
                0x00000000effb4218       0x8c drivers/built-in.o
 .data.kbd_shift_xlate_german
                0x00000000effb42a4       0x84 drivers/built-in.o
 .data.kbd_shift_xlate
                0x00000000effb4328       0x64 drivers/built-in.o
 .data.kbd_right_alt_xlate_german
                0x00000000effb438c       0x58 drivers/built-in.o
 .data.rel.local.step_string_tbl
                0x00000000effb43e4       0x20 drivers/ddr/fsl/built-in.o
                0x00000000effb43e4                step_string_tbl
 .data.rel.local.mtd_partitions
                0x00000000effb4404        0x8 drivers/mtd/built-in.o
 .data.flash_verbose
                0x00000000effb440c        0x4 drivers/mtd/built-in.o
 .data.rel.local.bbt_main_no_oob_descr
                0x00000000effb4410       0x24 drivers/mtd/nand/built-in.o
 .data.rel.local.bbt_main_descr
                0x00000000effb4434       0x48 drivers/mtd/nand/built-in.o
 .data.mirror_pattern
                0x00000000effb447c        0x8 drivers/mtd/nand/built-in.o
 .data.rel.local.bbt_mirror_no_oob_descr
                0x00000000effb4484       0x24 drivers/mtd/nand/built-in.o
 .data.bbt_pattern
                0x00000000effb44a8        0x8 drivers/mtd/nand/built-in.o
 .data.scan_ff_pattern
                0x00000000effb44b0        0x5 drivers/mtd/nand/built-in.o
 *fill*         0x00000000effb44b5        0x3 
 .data.rel.local.bbt_mirror_descr
                0x00000000effb44b8       0x48 drivers/mtd/nand/built-in.o
 .data.rel.local.nand_manuf_ids
                0x00000000effb4500       0x78 drivers/mtd/nand/built-in.o
                0x00000000effb4500                nand_manuf_ids
 .data.rel.local.nand_flash_ids
                0x00000000effb4578      0xd70 drivers/mtd/nand/built-in.o
                0x00000000effb4578                nand_flash_ids
 .data.rel.local.largepage_memorybased
                0x00000000effb52e8       0x24 drivers/mtd/nand/built-in.o
 .data.rel.ro.local.spi_flash_ids
                0x00000000effb530c      0x1e0 drivers/mtd/spi/built-in.o
                0x00000000effb530c                spi_flash_ids
 .data.rel.local.e1000_hw_list
                0x00000000effb54ec        0x8 drivers/net/built-in.o
 .data.e1000_supported
                0x00000000effb54f4      0x540 drivers/net/built-in.o
 .data.rel.local.tsec_info
                0x00000000effb5a34       0x54 drivers/net/built-in.o
 .data.rel.ro.local.phy_interface_strings
                0x00000000effb5a88       0x44 drivers/net/phy/built-in.o
 .data.rel.local.phy_drivers
                0x00000000effb5acc        0x8 drivers/net/phy/built-in.o
 .data.rel.genphy_driver
                0x00000000effb5ad4       0x34 drivers/net/phy/built-in.o
 .data.rel.M88E1121R_driver
                0x00000000effb5b08       0x34 drivers/net/phy/built-in.o
 .data.rel.M88E1149S_driver
                0x00000000effb5b3c       0x34 drivers/net/phy/built-in.o
 .data.rel.M88E1680_driver
                0x00000000effb5b70       0x34 drivers/net/phy/built-in.o
 .data.rel.M88E1310_driver
                0x00000000effb5ba4       0x34 drivers/net/phy/built-in.o
 .data.rel.M88E1118_driver
                0x00000000effb5bd8       0x34 drivers/net/phy/built-in.o
 .data.rel.M88E1518_driver
                0x00000000effb5c0c       0x34 drivers/net/phy/built-in.o
 .data.rel.M88E1145_driver
                0x00000000effb5c40       0x34 drivers/net/phy/built-in.o
 .data.rel.M88E1011S_driver
                0x00000000effb5c74       0x34 drivers/net/phy/built-in.o
 .data.rel.M88E1111S_driver
                0x00000000effb5ca8       0x34 drivers/net/phy/built-in.o
 .data.rel.M88E1118R_driver
                0x00000000effb5cdc       0x34 drivers/net/phy/built-in.o
 .data.rel.M88E1510_driver
                0x00000000effb5d10       0x34 drivers/net/phy/built-in.o
 .data.rel.local.eserial1_device
                0x00000000effb5d44       0x30 drivers/serial/built-in.o
                0x00000000effb5d44                eserial1_device
 .data.rel.local.eserial2_device
                0x00000000effb5d74       0x30 drivers/serial/built-in.o
                0x00000000effb5d74                eserial2_device
 .data.rel.ro.local.modes.8503
                0x00000000effb5da4        0xc drivers/usb/common/built-in.o
 .data.rel.ro.local.phys.8504
                0x00000000effb5db0        0xc drivers/usb/common/built-in.o
 .data.rel.ro.local.compat_usb_fsl
                0x00000000effb5dbc       0x10 drivers/usb/common/built-in.o
 .data.descriptor
                0x00000000effb5dcc       0x39 drivers/usb/host/built-in.o
 *fill*         0x00000000effb5e05        0x3 
 .data.rel.env_htab
                0x00000000effb5e08       0x10 env/built-in.o
                0x00000000effb5e08                env_htab
 .data.first_call
                0x00000000effb5e18        0x8 env/built-in.o
 .data.rel.fstypes
                0x00000000effb5e20       0xa8 fs/built-in.o
 .data.rel.ro.local.fdt_errtable
                0x00000000effb5ec8       0x48 lib/built-in.o
 .data.sha256_padding
                0x00000000effb5f10       0x40 lib/built-in.o
 .data.rel.ro.local.z_errmsg
                0x00000000effb5f50       0x28 lib/built-in.o
                0x00000000effb5f50                z_errmsg
 .data.first_call.7846
                0x00000000effb5f78        0x4 net/built-in.o
 .data.nfs_offset
                0x00000000effb5f7c        0x4 net/built-in.o
 .data.supported_nfs_versions
                0x00000000effb5f80        0x1 net/built-in.o
 *fill*         0x00000000effb5f81        0x1 
 .data.tftp_block_size_option
                0x00000000effb5f82        0x2 net/built-in.o
 .data.timeout_ms
                0x00000000effb5f84        0x4 net/built-in.o
 .data.tftp_block_size
                0x00000000effb5f88        0x2 net/built-in.o
 *fill*         0x00000000effb5f8a        0x2 
 .data.timeout_count_max
                0x00000000effb5f8c        0x4 net/built-in.o
 *(.sdata*)
 .sdata         0x00000000effb5f90        0x0 arch/powerpc/cpu/mpc85xx/start.o
                0x00000000effbdf90                _SDA_BASE_
 .sdata2        0x00000000effb5f90        0x0 arch/powerpc/cpu/mpc85xx/start.o
                0x00000000effbdf90                _SDA2_BASE_
 .sdata.num_law_entries
                0x00000000effb5f90        0x4 board/freescale/p1_p2_rdb_pc/built-in.o
                0x00000000effb5f90                num_law_entries
 .sdata.num_tlb_entries
                0x00000000effb5f94        0x4 board/freescale/p1_p2_rdb_pc/built-in.o
                0x00000000effb5f94                num_tlb_entries
 .sdata.board_hwconfig
                0x00000000effb5f98        0x1 common/built-in.o
                0x00000000effb5f98                board_hwconfig
 *fill*         0x00000000effb5f99        0x3 
 .sdata.cpu_hwconfig
                0x00000000effb5f9c        0x1 common/built-in.o
                0x00000000effb5f9c                cpu_hwconfig
 *fill*         0x00000000effb5f9d        0x3 
 .sdata.load_addr
                0x00000000effb5fa0        0x4 common/built-in.o
                0x00000000effb5fa0                load_addr
 .sdata.nand_curr_device
                0x00000000effb5fa4        0x4 drivers/mtd/nand/built-in.o
                0x00000000effb5fa4                nand_curr_device
 .sdata.env_ptr
                0x00000000effb5fa8        0x4 env/built-in.o
                0x00000000effb5fa8                env_ptr
 .sdata.ext4fs_indir1_blkno
                0x00000000effb5fac        0x4 fs/built-in.o
                0x00000000effb5fac                ext4fs_indir1_blkno
 .sdata.ext4fs_indir2_blkno
                0x00000000effb5fb0        0x4 fs/built-in.o
                0x00000000effb5fb0                ext4fs_indir2_blkno
 .sdata.ext4fs_indir3_blkno
                0x00000000effb5fb4        0x4 fs/built-in.o
                0x00000000effb5fb4                ext4fs_indir3_blkno
 .sdata.cur     0x00000000effb5fb8        0x4 lib/built-in.o
                0x00000000effb5fb8                cur
 .sdata.current
                0x00000000effb5fbc        0x4 lib/built-in.o
                0x00000000effb5fbc                current
 .sdata.net_our_vlan
                0x00000000effb5fc0        0x2 net/built-in.o
                0x00000000effb5fc0                net_our_vlan
 *fill*         0x00000000effb5fc2        0x2 
 .sdata.net_bcast_ethaddr
                0x00000000effb5fc4        0x6 net/built-in.o
                0x00000000effb5fc4                net_bcast_ethaddr
 .sdata.net_native_vlan
                0x00000000effb5fca        0x2 net/built-in.o
                0x00000000effb5fca                net_native_vlan
 .sdata.tftp_timeout_count_max
                0x00000000effb5fcc        0x4 net/built-in.o
                0x00000000effb5fcc                tftp_timeout_count_max
                0x00000000effb5fd0                _edata = .
                [!provide]                        PROVIDE (edata, .)
                0x00000000effb5fd0                . = .
                0x00000000effb5fd0                . = ALIGN (0x4)

.u_boot_list    0x00000000effb5fd0      0x888
 *(SORT(.u_boot_list*))
 .u_boot_list_2_blk_driver_1
                0x00000000effb5fd0        0x0 drivers/built-in.o
 .u_boot_list_2_blk_driver_2_mmc
                0x00000000effb5fd0       0x18 drivers/built-in.o
                0x00000000effb5fd0                _u_boot_list_2_blk_driver_2_mmc
 .u_boot_list_2_blk_driver_2_sata
                0x00000000effb5fe8       0x18 drivers/built-in.o
                0x00000000effb5fe8                _u_boot_list_2_blk_driver_2_sata
 .u_boot_list_2_blk_driver_2_usb
                0x00000000effb6000       0x18 common/built-in.o
                0x00000000effb6000                _u_boot_list_2_blk_driver_2_usb
 .u_boot_list_2_blk_driver_3
                0x00000000effb6018        0x0 drivers/built-in.o
 .u_boot_list_2_cmd_1
                0x00000000effb6018        0x0 cmd/built-in.o
 .u_boot_list_2_cmd_1
                0x00000000effb6018        0x0 common/built-in.o
 .u_boot_list_2_cmd_2_base
                0x00000000effb6018       0x18 cmd/built-in.o
                0x00000000effb6018                _u_boot_list_2_cmd_2_base
 .u_boot_list_2_cmd_2_bdinfo
                0x00000000effb6030       0x18 cmd/built-in.o
                0x00000000effb6030                _u_boot_list_2_cmd_2_bdinfo
 .u_boot_list_2_cmd_2_boot
                0x00000000effb6048       0x18 cmd/built-in.o
                0x00000000effb6048                _u_boot_list_2_cmd_2_boot
 .u_boot_list_2_cmd_2_bootd
                0x00000000effb6060       0x18 cmd/built-in.o
                0x00000000effb6060                _u_boot_list_2_cmd_2_bootd
 .u_boot_list_2_cmd_2_bootelf
                0x00000000effb6078       0x18 cmd/built-in.o
                0x00000000effb6078                _u_boot_list_2_cmd_2_bootelf
 .u_boot_list_2_cmd_2_bootm
                0x00000000effb6090       0x18 cmd/built-in.o
                0x00000000effb6090                _u_boot_list_2_cmd_2_bootm
 .u_boot_list_2_cmd_2_bootp
                0x00000000effb60a8       0x18 cmd/built-in.o
                0x00000000effb60a8                _u_boot_list_2_cmd_2_bootp
 .u_boot_list_2_cmd_2_bootvx
                0x00000000effb60c0       0x18 cmd/built-in.o
                0x00000000effb60c0                _u_boot_list_2_cmd_2_bootvx
 .u_boot_list_2_cmd_2_chpart
                0x00000000effb60d8       0x18 cmd/built-in.o
                0x00000000effb60d8                _u_boot_list_2_cmd_2_chpart
 .u_boot_list_2_cmd_2_cmp
                0x00000000effb60f0       0x18 cmd/built-in.o
                0x00000000effb60f0                _u_boot_list_2_cmd_2_cmp
 .u_boot_list_2_cmd_2_coninfo
                0x00000000effb6108       0x18 cmd/built-in.o
                0x00000000effb6108                _u_boot_list_2_cmd_2_coninfo
 .u_boot_list_2_cmd_2_cp
                0x00000000effb6120       0x18 cmd/built-in.o
                0x00000000effb6120                _u_boot_list_2_cmd_2_cp
 .u_boot_list_2_cmd_2_cpu
                0x00000000effb6138       0x18 cmd/built-in.o
                0x00000000effb6138                _u_boot_list_2_cmd_2_cpu
 .u_boot_list_2_cmd_2_crc32
                0x00000000effb6150       0x18 cmd/built-in.o
                0x00000000effb6150                _u_boot_list_2_cmd_2_crc32
 .u_boot_list_2_cmd_2_date
                0x00000000effb6168       0x18 cmd/built-in.o
                0x00000000effb6168                _u_boot_list_2_cmd_2_date
 .u_boot_list_2_cmd_2_echo
                0x00000000effb6180       0x18 cmd/built-in.o
                0x00000000effb6180                _u_boot_list_2_cmd_2_echo
 .u_boot_list_2_cmd_2_editenv
                0x00000000effb6198       0x18 cmd/built-in.o
                0x00000000effb6198                _u_boot_list_2_cmd_2_editenv
 .u_boot_list_2_cmd_2_eeprom
                0x00000000effb61b0       0x18 cmd/built-in.o
                0x00000000effb61b0                _u_boot_list_2_cmd_2_eeprom
 .u_boot_list_2_cmd_2_env
                0x00000000effb61c8       0x18 cmd/built-in.o
                0x00000000effb61c8                _u_boot_list_2_cmd_2_env
 .u_boot_list_2_cmd_2_erase
                0x00000000effb61e0       0x18 cmd/built-in.o
                0x00000000effb61e0                _u_boot_list_2_cmd_2_erase
 .u_boot_list_2_cmd_2_exit
                0x00000000effb61f8       0x18 cmd/built-in.o
                0x00000000effb61f8                _u_boot_list_2_cmd_2_exit
 .u_boot_list_2_cmd_2_ext2load
                0x00000000effb6210       0x18 cmd/built-in.o
                0x00000000effb6210                _u_boot_list_2_cmd_2_ext2load
 .u_boot_list_2_cmd_2_ext2ls
                0x00000000effb6228       0x18 cmd/built-in.o
                0x00000000effb6228                _u_boot_list_2_cmd_2_ext2ls
 .u_boot_list_2_cmd_2_false
                0x00000000effb6240       0x18 cmd/built-in.o
                0x00000000effb6240                _u_boot_list_2_cmd_2_false
 .u_boot_list_2_cmd_2_fatinfo
                0x00000000effb6258       0x18 cmd/built-in.o
                0x00000000effb6258                _u_boot_list_2_cmd_2_fatinfo
 .u_boot_list_2_cmd_2_fatload
                0x00000000effb6270       0x18 cmd/built-in.o
                0x00000000effb6270                _u_boot_list_2_cmd_2_fatload
 .u_boot_list_2_cmd_2_fatls
                0x00000000effb6288       0x18 cmd/built-in.o
                0x00000000effb6288                _u_boot_list_2_cmd_2_fatls
 .u_boot_list_2_cmd_2_fatsize
                0x00000000effb62a0       0x18 cmd/built-in.o
                0x00000000effb62a0                _u_boot_list_2_cmd_2_fatsize
 .u_boot_list_2_cmd_2_fdt
                0x00000000effb62b8       0x18 cmd/built-in.o
                0x00000000effb62b8                _u_boot_list_2_cmd_2_fdt
 .u_boot_list_2_cmd_2_flinfo
                0x00000000effb62d0       0x18 cmd/built-in.o
                0x00000000effb62d0                _u_boot_list_2_cmd_2_flinfo
 .u_boot_list_2_cmd_2_go
                0x00000000effb62e8       0x18 cmd/built-in.o
                0x00000000effb62e8                _u_boot_list_2_cmd_2_go
 .u_boot_list_2_cmd_2_help
                0x00000000effb6300       0x18 cmd/built-in.o
                0x00000000effb6300                _u_boot_list_2_cmd_2_help
 .u_boot_list_2_cmd_2_i2c
                0x00000000effb6318       0x18 cmd/built-in.o
                0x00000000effb6318                _u_boot_list_2_cmd_2_i2c
 .u_boot_list_2_cmd_2_iminfo
                0x00000000effb6330       0x18 cmd/built-in.o
                0x00000000effb6330                _u_boot_list_2_cmd_2_iminfo
 .u_boot_list_2_cmd_2_imls
                0x00000000effb6348       0x18 cmd/built-in.o
                0x00000000effb6348                _u_boot_list_2_cmd_2_imls
 .u_boot_list_2_cmd_2_imxtract
                0x00000000effb6360       0x18 cmd/built-in.o
                0x00000000effb6360                _u_boot_list_2_cmd_2_imxtract
 .u_boot_list_2_cmd_2_interrupts
                0x00000000effb6378       0x18 cmd/built-in.o
                0x00000000effb6378                _u_boot_list_2_cmd_2_interrupts
 .u_boot_list_2_cmd_2_irqinfo
                0x00000000effb6390       0x18 cmd/built-in.o
                0x00000000effb6390                _u_boot_list_2_cmd_2_irqinfo
 .u_boot_list_2_cmd_2_itest
                0x00000000effb63a8       0x18 cmd/built-in.o
                0x00000000effb63a8                _u_boot_list_2_cmd_2_itest
 .u_boot_list_2_cmd_2_loadb
                0x00000000effb63c0       0x18 cmd/built-in.o
                0x00000000effb63c0                _u_boot_list_2_cmd_2_loadb
 .u_boot_list_2_cmd_2_loads
                0x00000000effb63d8       0x18 cmd/built-in.o
                0x00000000effb63d8                _u_boot_list_2_cmd_2_loads
 .u_boot_list_2_cmd_2_loadx
                0x00000000effb63f0       0x18 cmd/built-in.o
                0x00000000effb63f0                _u_boot_list_2_cmd_2_loadx
 .u_boot_list_2_cmd_2_loady
                0x00000000effb6408       0x18 cmd/built-in.o
                0x00000000effb6408                _u_boot_list_2_cmd_2_loady
 .u_boot_list_2_cmd_2_loop
                0x00000000effb6420       0x18 cmd/built-in.o
                0x00000000effb6420                _u_boot_list_2_cmd_2_loop
 .u_boot_list_2_cmd_2_md
                0x00000000effb6438       0x18 cmd/built-in.o
                0x00000000effb6438                _u_boot_list_2_cmd_2_md
 .u_boot_list_2_cmd_2_mdio
                0x00000000effb6450       0x18 cmd/built-in.o
                0x00000000effb6450                _u_boot_list_2_cmd_2_mdio
 .u_boot_list_2_cmd_2_mii
                0x00000000effb6468       0x18 cmd/built-in.o
                0x00000000effb6468                _u_boot_list_2_cmd_2_mii
 .u_boot_list_2_cmd_2_mm
                0x00000000effb6480       0x18 cmd/built-in.o
                0x00000000effb6480                _u_boot_list_2_cmd_2_mm
 .u_boot_list_2_cmd_2_mmc
                0x00000000effb6498       0x18 cmd/built-in.o
                0x00000000effb6498                _u_boot_list_2_cmd_2_mmc
 .u_boot_list_2_cmd_2_mmcinfo
                0x00000000effb64b0       0x18 cmd/built-in.o
                0x00000000effb64b0                _u_boot_list_2_cmd_2_mmcinfo
 .u_boot_list_2_cmd_2_mtdparts
                0x00000000effb64c8       0x18 cmd/built-in.o
                0x00000000effb64c8                _u_boot_list_2_cmd_2_mtdparts
 .u_boot_list_2_cmd_2_mw
                0x00000000effb64e0       0x18 cmd/built-in.o
                0x00000000effb64e0                _u_boot_list_2_cmd_2_mw
 .u_boot_list_2_cmd_2_nand
                0x00000000effb64f8       0x18 cmd/built-in.o
                0x00000000effb64f8                _u_boot_list_2_cmd_2_nand
 .u_boot_list_2_cmd_2_nboot
                0x00000000effb6510       0x18 cmd/built-in.o
                0x00000000effb6510                _u_boot_list_2_cmd_2_nboot
 .u_boot_list_2_cmd_2_nfs
                0x00000000effb6528       0x18 cmd/built-in.o
                0x00000000effb6528                _u_boot_list_2_cmd_2_nfs
 .u_boot_list_2_cmd_2_nm
                0x00000000effb6540       0x18 cmd/built-in.o
                0x00000000effb6540                _u_boot_list_2_cmd_2_nm
 .u_boot_list_2_cmd_2_pci
                0x00000000effb6558       0x18 cmd/built-in.o
                0x00000000effb6558                _u_boot_list_2_cmd_2_pci
 .u_boot_list_2_cmd_2_ping
                0x00000000effb6570       0x18 cmd/built-in.o
                0x00000000effb6570                _u_boot_list_2_cmd_2_ping
 .u_boot_list_2_cmd_2_printenv
                0x00000000effb6588       0x18 cmd/built-in.o
                0x00000000effb6588                _u_boot_list_2_cmd_2_printenv
 .u_boot_list_2_cmd_2_protect
                0x00000000effb65a0       0x18 cmd/built-in.o
                0x00000000effb65a0                _u_boot_list_2_cmd_2_protect
 .u_boot_list_2_cmd_2_question_mark
                0x00000000effb65b8       0x18 cmd/built-in.o
                0x00000000effb65b8                _u_boot_list_2_cmd_2_question_mark
 .u_boot_list_2_cmd_2_reginfo
                0x00000000effb65d0       0x18 cmd/built-in.o
                0x00000000effb65d0                _u_boot_list_2_cmd_2_reginfo
 .u_boot_list_2_cmd_2_reset
                0x00000000effb65e8       0x18 cmd/built-in.o
                0x00000000effb65e8                _u_boot_list_2_cmd_2_reset
 .u_boot_list_2_cmd_2_run
                0x00000000effb6600       0x18 cmd/built-in.o
                0x00000000effb6600                _u_boot_list_2_cmd_2_run
 .u_boot_list_2_cmd_2_sata
                0x00000000effb6618       0x18 cmd/built-in.o
                0x00000000effb6618                _u_boot_list_2_cmd_2_sata
 .u_boot_list_2_cmd_2_saveenv
                0x00000000effb6630       0x18 cmd/built-in.o
                0x00000000effb6630                _u_boot_list_2_cmd_2_saveenv
 .u_boot_list_2_cmd_2_setenv
                0x00000000effb6648       0x18 cmd/built-in.o
                0x00000000effb6648                _u_boot_list_2_cmd_2_setenv
 .u_boot_list_2_cmd_2_setexpr
                0x00000000effb6660       0x18 cmd/built-in.o
                0x00000000effb6660                _u_boot_list_2_cmd_2_setexpr
 .u_boot_list_2_cmd_2_sf
                0x00000000effb6678       0x18 cmd/built-in.o
                0x00000000effb6678                _u_boot_list_2_cmd_2_sf
 .u_boot_list_2_cmd_2_showvar
                0x00000000effb6690       0x18 common/built-in.o
                0x00000000effb6690                _u_boot_list_2_cmd_2_showvar
 .u_boot_list_2_cmd_2_sleep
                0x00000000effb66a8       0x18 cmd/built-in.o
                0x00000000effb66a8                _u_boot_list_2_cmd_2_sleep
 .u_boot_list_2_cmd_2_source
                0x00000000effb66c0       0x18 cmd/built-in.o
                0x00000000effb66c0                _u_boot_list_2_cmd_2_source
 .u_boot_list_2_cmd_2_test
                0x00000000effb66d8       0x18 cmd/built-in.o
                0x00000000effb66d8                _u_boot_list_2_cmd_2_test
 .u_boot_list_2_cmd_2_tftpboot
                0x00000000effb66f0       0x18 cmd/built-in.o
                0x00000000effb66f0                _u_boot_list_2_cmd_2_tftpboot
 .u_boot_list_2_cmd_2_true
                0x00000000effb6708       0x18 cmd/built-in.o
                0x00000000effb6708                _u_boot_list_2_cmd_2_true
 .u_boot_list_2_cmd_2_usb
                0x00000000effb6720       0x18 cmd/built-in.o
                0x00000000effb6720                _u_boot_list_2_cmd_2_usb
 .u_boot_list_2_cmd_2_usbboot
                0x00000000effb6738       0x18 cmd/built-in.o
                0x00000000effb6738                _u_boot_list_2_cmd_2_usbboot
 .u_boot_list_2_cmd_2_version
                0x00000000effb6750       0x18 cmd/built-in.o
                0x00000000effb6750                _u_boot_list_2_cmd_2_version
 .u_boot_list_2_cmd_3
                0x00000000effb6768        0x0 cmd/built-in.o
 .u_boot_list_2_cmd_3
                0x00000000effb6768        0x0 common/built-in.o
 .u_boot_list_2_env_clbk_1
                0x00000000effb6768        0x0 env/built-in.o
 .u_boot_list_2_env_clbk_2_baudrate
                0x00000000effb6768        0x8 drivers/serial/built-in.o
                0x00000000effb6768                _u_boot_list_2_env_clbk_2_baudrate
 .u_boot_list_2_env_clbk_2_bootfile
                0x00000000effb6770        0x8 net/built-in.o
                0x00000000effb6770                _u_boot_list_2_env_clbk_2_bootfile
 .u_boot_list_2_env_clbk_2_callbacks
                0x00000000effb6778        0x8 env/built-in.o
                0x00000000effb6778                _u_boot_list_2_env_clbk_2_callbacks
 .u_boot_list_2_env_clbk_2_console
                0x00000000effb6780        0x8 common/built-in.o
                0x00000000effb6780                _u_boot_list_2_env_clbk_2_console
 .u_boot_list_2_env_clbk_2_ethaddr
                0x00000000effb6788        0x8 net/built-in.o
                0x00000000effb6788                _u_boot_list_2_env_clbk_2_ethaddr
 .u_boot_list_2_env_clbk_2_flags
                0x00000000effb6790        0x8 env/built-in.o
                0x00000000effb6790                _u_boot_list_2_env_clbk_2_flags
 .u_boot_list_2_env_clbk_2_gatewayip
                0x00000000effb6798        0x8 net/built-in.o
                0x00000000effb6798                _u_boot_list_2_env_clbk_2_gatewayip
 .u_boot_list_2_env_clbk_2_ipaddr
                0x00000000effb67a0        0x8 net/built-in.o
                0x00000000effb67a0                _u_boot_list_2_env_clbk_2_ipaddr
 .u_boot_list_2_env_clbk_2_loadaddr
                0x00000000effb67a8        0x8 common/built-in.o
                0x00000000effb67a8                _u_boot_list_2_env_clbk_2_loadaddr
 .u_boot_list_2_env_clbk_2_netmask
                0x00000000effb67b0        0x8 net/built-in.o
                0x00000000effb67b0                _u_boot_list_2_env_clbk_2_netmask
 .u_boot_list_2_env_clbk_2_nvlan
                0x00000000effb67b8        0x8 net/built-in.o
                0x00000000effb67b8                _u_boot_list_2_env_clbk_2_nvlan
 .u_boot_list_2_env_clbk_2_serverip
                0x00000000effb67c0        0x8 net/built-in.o
                0x00000000effb67c0                _u_boot_list_2_env_clbk_2_serverip
 .u_boot_list_2_env_clbk_2_vlan
                0x00000000effb67c8        0x8 net/built-in.o
                0x00000000effb67c8                _u_boot_list_2_env_clbk_2_vlan
 .u_boot_list_2_env_clbk_3
                0x00000000effb67d0        0x0 env/built-in.o
 .u_boot_list_2_env_driver_1
                0x00000000effb67d0        0x0 env/built-in.o
 .u_boot_list_2_env_driver_2_flash
                0x00000000effb67d0       0x18 env/built-in.o
                0x00000000effb67d0                _u_boot_list_2_env_driver_2_flash
 .u_boot_list_2_env_driver_3
                0x00000000effb67e8        0x0 env/built-in.o
 .u_boot_list_2_fit_loadable_1
                0x00000000effb67e8        0x0 common/built-in.o
 .u_boot_list_2_fit_loadable_3
                0x00000000effb67e8        0x0 common/built-in.o
 .u_boot_list_2_i2c_1
                0x00000000effb67e8        0x0 cmd/built-in.o
 .u_boot_list_2_i2c_1
                0x00000000effb67e8        0x0 drivers/i2c/built-in.o
 .u_boot_list_2_i2c_2_fsl_0
                0x00000000effb67e8       0x2c drivers/i2c/built-in.o
                0x00000000effb67e8                _u_boot_list_2_i2c_2_fsl_0
 .u_boot_list_2_i2c_2_fsl_1
                0x00000000effb6814       0x2c drivers/i2c/built-in.o
                0x00000000effb6814                _u_boot_list_2_i2c_2_fsl_1
 .u_boot_list_2_i2c_3
                0x00000000effb6840        0x0 cmd/built-in.o
 .u_boot_list_2_i2c_3
                0x00000000effb6840        0x0 drivers/i2c/built-in.o
 .u_boot_list_2_part_driver_1
                0x00000000effb6840        0x0 disk/built-in.o
 .u_boot_list_2_part_driver_2_dos
                0x00000000effb6840       0x18 disk/built-in.o
                0x00000000effb6840                _u_boot_list_2_part_driver_2_dos
 .u_boot_list_2_part_driver_3
                0x00000000effb6858        0x0 disk/built-in.o
                0x00000000effb6858                . = .
                0x00000000effb6858                __start___ex_table = .

__ex_table
 *(__ex_table)
                0x00000000effb6858                __stop___ex_table = .
                0x00000000effb6900                . = ALIGN (0x100)
                0x00000000effb6900                __init_begin = .

.text.init
 *(.text.init)

.data.init
 *(.data.init)
                0x00000000effb6900                . = ALIGN (0x100)
                0x00000000effb6900                __init_end = .

.bootpg         0x00000000effff000      0x4cc
 arch/powerpc/cpu/mpc85xx/start.o(.bootpg)
 .bootpg        0x00000000effff000      0x4cc arch/powerpc/cpu/mpc85xx/start.o
                0x00000000effff000                _start_e500

.resetvec       0x00000000effffffc        0x4
 *(.resetvec)
 .resetvec      0x00000000effffffc        0x4 arch/powerpc/cpu/mpc85xx/resetvec.o
                0x00000000f0000000                . = 0xf0000000
                0x00000000f0000000                __bss_start = .

.bss            0x00000000f0000000    0x4bfe0
 *(.sbss*)
 .sbss          0x00000000f0000000        0x0 arch/powerpc/cpu/mpc85xx/start.o
 .sbss.machinecheck_count
                0x00000000f0000000        0x4 arch/powerpc/cpu/mpc85xx/built-in.o
                0x00000000f0000000                machinecheck_count
 .sbss.machinecheck_error
                0x00000000f0000004        0x4 arch/powerpc/cpu/mpc85xx/built-in.o
                0x00000000f0000004                machinecheck_error
 .sbss.current_mtd_partnum
                0x00000000f0000008        0x1 cmd/built-in.o
                0x00000000f0000008                current_mtd_partnum
 *fill*         0x00000000f0000009        0x3 
 .sbss.current_mtd_dev
                0x00000000f000000c        0x4 cmd/built-in.o
                0x00000000f000000c                current_mtd_dev
 .sbss          0x00000000f0000010        0x5 cmd/built-in.o
                0x00000000f0000010                working_fdt
                0x00000000f0000014                use_defaults
 *fill*         0x00000000f0000015        0x3 
 .sbss.mem_malloc_brk
                0x00000000f0000018        0x4 common/built-in.o
                0x00000000f0000018                mem_malloc_brk
 .sbss.mem_malloc_end
                0x00000000f000001c        0x4 common/built-in.o
                0x00000000f000001c                mem_malloc_end
 .sbss.mem_malloc_start
                0x00000000f0000020        0x4 common/built-in.o
                0x00000000f0000020                mem_malloc_start
 .sbss          0x00000000f0000024       0x10 common/built-in.o
                0x00000000f0000024                usb_started
                0x00000000f0000028                monitor_flash_len
                0x00000000f000002c                save_addr
                0x00000000f0000030                save_size
 .sbss          0x00000000f0000034       0x2c fs/built-in.o
                0x00000000f0000034                part_offset
                0x00000000f0000038                ext4fs_indir1_size
                0x00000000f000003c                ext4fs_indir2_block
                0x00000000f0000040                ext4fs_indir3_block
                0x00000000f0000044                ext4fs_symlinknest
                0x00000000f0000048                ext4fs_indir3_size
                0x00000000f000004c                g_parent_inode
                0x00000000f0000050                ext4fs_indir2_size
                0x00000000f0000054                ext4fs_indir1_block
                0x00000000f0000058                ext4fs_file
                0x00000000f000005c                ext4fs_root
 .sbss.errno    0x00000000f0000060        0x4 lib/built-in.o
                0x00000000f0000060                errno
 .sbss          0x00000000f0000064       0x78 net/built-in.o
                0x00000000f0000064                bootp_start
                0x00000000f0000068                net_server_ip
                0x00000000f000006c                net_null_ethaddr
                0x00000000f0000074                net_ethaddr
                0x00000000f000007c                net_boot_file_size
                0x00000000f0000080                net_ping_ip
                0x00000000f0000084                bootp_timeout
                0x00000000f0000088                bootp_num_ids
                0x00000000f000008c                net_rx_packet_len
                0x00000000f0000090                eth_current
                0x00000000f0000094                arp_wait_timer_start
                0x00000000f0000098                net_gateway
                0x00000000f000009c                net_busy_flag
                0x00000000f00000a0                net_restart_wrap
                0x00000000f00000a4                net_boot_file_expected_size_in_blocks
                0x00000000f00000a8                arp_wait_tx_packet_size
                0x00000000f00000ac                net_server_ethaddr
                0x00000000f00000b4                net_state
                0x00000000f00000b8                arp_wait_try
                0x00000000f00000bc                net_rx_packet
                0x00000000f00000c0                net_netmask
                0x00000000f00000c4                bootp_try
                0x00000000f00000c8                arp_wait_packet_ethaddr
                0x00000000f00000cc                net_arp_wait_packet_ip
                0x00000000f00000d0                net_tx_packet
                0x00000000f00000d4                net_dns_server
                0x00000000f00000d8                net_ip
 *(.bss*)
 .bss.serdes1_prtcl_map
                0x00000000f00000dc        0x4 arch/powerpc/cpu/mpc85xx/built-in.o
 .bss.timestamp
                0x00000000f00000e0        0x4 arch/powerpc/lib/built-in.o
 .bss.decrementer_count
                0x00000000f00000e4        0x4 arch/powerpc/lib/built-in.o
 .bss.data.7508
                0x00000000f00000e8      0x400 cmd/built-in.o
 .bss.i2c_mm_last_addr
                0x00000000f00004e8        0x4 cmd/built-in.o
 .bss.i2c_mm_last_chip
                0x00000000f00004ec        0x4 cmd/built-in.o
 .bss.i2c_dp_last_chip
                0x00000000f00004f0        0x4 cmd/built-in.o
 .bss.i2c_mm_last_alen
                0x00000000f00004f4        0x4 cmd/built-in.o
 .bss.i2c_dp_last_addr
                0x00000000f00004f8        0x4 cmd/built-in.o
 .bss.i2c_dp_last_alen
                0x00000000f00004fc        0x4 cmd/built-in.o
 .bss.send_parms
                0x00000000f0000500       0x14 cmd/built-in.o
 .bss.os_data_addr_saved
                0x00000000f0000514        0x4 cmd/built-in.o
 .bss.his_pad_char
                0x00000000f0000518        0x1 cmd/built-in.o
 *fill*         0x00000000f0000519        0x3 
 .bss.a_b       0x00000000f000051c       0x18 cmd/built-in.o
 .bss.os_data_char
                0x00000000f0000534        0x4 cmd/built-in.o
 .bss.os_data_state
                0x00000000f0000538        0x4 cmd/built-in.o
 .bss.k_data_escape
                0x00000000f000053c        0x4 cmd/built-in.o
 .bss.os_data_state_saved
                0x00000000f0000540        0x4 cmd/built-in.o
 .bss.os_data_addr
                0x00000000f0000544        0x4 cmd/built-in.o
 .bss.send_ptr  0x00000000f0000548        0x4 cmd/built-in.o
 .bss.his_pad_count
                0x00000000f000054c        0x4 cmd/built-in.o
 .bss.bin_start_address
                0x00000000f0000550        0x4 cmd/built-in.o
 .bss.his_quote
                0x00000000f0000554        0x1 cmd/built-in.o
 *fill*         0x00000000f0000555        0x3 
 .bss.os_data_init
                0x00000000f0000558        0x4 cmd/built-in.o
 .bss.his_eol   0x00000000f000055c        0x1 cmd/built-in.o
 *fill*         0x00000000f000055d        0x3 
 .bss.k_data_escape_saved
                0x00000000f0000560        0x4 cmd/built-in.o
 .bss.dp_last_addr
                0x00000000f0000564        0x4 cmd/built-in.o
 .bss.base_address
                0x00000000f0000568        0x4 cmd/built-in.o
 .bss.mm_last_size
                0x00000000f000056c        0x4 cmd/built-in.o
 .bss.mm_last_addr
                0x00000000f0000570        0x4 cmd/built-in.o
 .bss.dp_last_size
                0x00000000f0000574        0x4 cmd/built-in.o
 .bss.last_data
                0x00000000f0000578        0x8 cmd/built-in.o
 .bss.last_reg_hi
                0x00000000f0000580        0x8 cmd/built-in.o
 .bss.last_mask
                0x00000000f0000588        0x4 cmd/built-in.o
 .bss.last_addr_lo
                0x00000000f000058c        0x8 cmd/built-in.o
 .bss.last_op   0x00000000f0000594        0x6 cmd/built-in.o
 *fill*         0x00000000f000059a        0x2 
 .bss.last_addr_hi
                0x00000000f000059c        0x8 cmd/built-in.o
 .bss.last_reg_lo
                0x00000000f00005a4        0x8 cmd/built-in.o
 .bss.last_devad_hi
                0x00000000f00005ac        0x4 cmd/built-in.o
 .bss.last_devad_lo
                0x00000000f00005b0        0x4 cmd/built-in.o
 .bss.last_ids  0x00000000f00005b4       0x81 cmd/built-in.o
 *fill*         0x00000000f0000635        0x3 
 .bss.last_partition
                0x00000000f0000638       0x11 cmd/built-in.o
 *fill*         0x00000000f0000649        0x3 
 .bss.last_parts
                0x00000000f000064c      0x201 cmd/built-in.o
 *fill*         0x00000000f000084d        0x3 
 .bss.initialized.9429
                0x00000000f0000850        0x4 cmd/built-in.o
 .bss.mtdids    0x00000000f0000854        0x8 cmd/built-in.o
 .bss.devices   0x00000000f000085c        0x8 cmd/built-in.o
 *fill*         0x00000000f0000864        0x4 
 .bss.last.9180
                0x00000000f0000868        0x8 cmd/built-in.o
 .bss.flash     0x00000000f0000870        0x4 cmd/built-in.o
 .bss.flag_repeat
                0x00000000f0000874        0x4 common/built-in.o
 .bss.buf.7985  0x00000000f0000878       0x28 common/built-in.o
 .bss.ifs       0x00000000f00008a0        0x4 common/built-in.o
 .bss.last_return_code
                0x00000000f00008a4        0x4 common/built-in.o
 .bss.map       0x00000000f00008a8      0x100 common/built-in.o
 .bss.do_repeat
                0x00000000f00009a8        0x4 common/built-in.o
 .bss.the_command.7785
                0x00000000f00009ac      0x101 common/built-in.o
 *fill*         0x00000000f0000aad        0x3 
 .bss.top_vars  0x00000000f0000ab0        0x4 common/built-in.o
 .bss.stored_bootdelay
                0x00000000f0000ab4        0x4 common/built-in.o
 .bss.current_mii
                0x00000000f0000ab8        0x4 common/built-in.o
 .bss.mii_devs  0x00000000f0000abc        0x8 common/built-in.o
 .bss.dev_index
                0x00000000f0000ac4        0x4 common/built-in.o
 *fill*         0x00000000f0000ac8       0x18 
 .bss.usb_dev   0x00000000f0000ae0    0x12c00 common/built-in.o
 .bss.asynch_allowed
                0x00000000f00136e0        0x4 common/built-in.o
 .bss.running.9360
                0x00000000f00136e4        0x4 common/built-in.o
 .bss.usb_hub_index
                0x00000000f00136e8        0x4 common/built-in.o
 .bss.hub_dev   0x00000000f00136ec      0x440 common/built-in.o
 .bss.usb_stor  0x00000000f0013b2c      0x188 common/built-in.o
 .bss.usb_dev_desc
                0x00000000f0013cb4      0x3b8 common/built-in.o
 .bss.usb_max_devs
                0x00000000f001406c        0x4 common/built-in.o
 .bss.CBWTag    0x00000000f0014070        0x4 common/built-in.o
 *fill*         0x00000000f0014074        0xc 
 .bss.usb_ccb   0x00000000f0014080       0xa0 common/built-in.o
 .bss.hist_list
                0x00000000f0014120       0x50 common/built-in.o
 .bss.hist_lines
                0x00000000f0014170     0x1414 common/built-in.o
 .bss.hist_max  0x00000000f0015584        0x4 common/built-in.o
 .bss.initted.7650
                0x00000000f0015588        0x4 common/built-in.o
 .bss.hist_add_idx
                0x00000000f001558c        0x4 common/built-in.o
 .bss.hist_num  0x00000000f0015590        0x4 common/built-in.o
 .bss.ctrlc_was_pressed
                0x00000000f0015594        0x4 common/built-in.o
 .bss.ctrlc_disabled
                0x00000000f0015598        0x4 common/built-in.o
 .bss.max_total_mem
                0x00000000f001559c        0x4 common/built-in.o
 .bss.max_sbrked_mem
                0x00000000f00155a0        0x4 common/built-in.o
 .bss.top_pad   0x00000000f00155a4        0x4 common/built-in.o
 .bss.current_mallinfo
                0x00000000f00155a8       0x28 common/built-in.o
 .bss.stdio_devices
                0x00000000f00155d0        0xc common/built-in.o
                0x00000000f00155d0                stdio_devices
 .bss.devs      0x00000000f00155dc       0x4c common/built-in.o
 .bss.xyz       0x00000000f0015628      0x434 common/built-in.o
 .bss.sata_info
                0x00000000f0015a5c       0x18 drivers/built-in.o
 .bss.init_done.8354
                0x00000000f0015a74        0x4 drivers/built-in.o
 .bss.idx.8355  0x00000000f0015a78        0x4 drivers/built-in.o
 .bss.compat_strlist.7450
                0x00000000f0015a7c       0x4d drivers/built-in.o
 *fill*         0x00000000f0015ac9        0x3 
 .bss.mmc_devices
                0x00000000f0015acc        0x8 drivers/built-in.o
 .bss.mtd_idr   0x00000000f0015ad4      0x200 drivers/mtd/built-in.o
 .bss.saved_sector.9106
                0x00000000f0015cd4        0x4 drivers/mtd/built-in.o
 .bss.saved_info.9107
                0x00000000f0015cd8        0x4 drivers/mtd/built-in.o
 .bss.cfi_mtd_names
                0x00000000f0015cdc       0x10 drivers/mtd/built-in.o
 *fill*         0x00000000f0015cec        0x4 
 .bss.cfi_mtd_info
                0x00000000f0015cf0       0xd8 drivers/mtd/built-in.o
 .bss.nand_info
                0x00000000f0015dc8        0x4 drivers/mtd/nand/built-in.o
 .bss.rx_last   0x00000000f0015dcc        0x4 drivers/net/built-in.o
 *fill*         0x00000000f0015dd0       0x30 
 .bss.__tx_base
                0x00000000f0015e00      0x100 drivers/net/built-in.o
 .bss.rx_tail   0x00000000f0015f00        0x4 drivers/net/built-in.o
 *fill*         0x00000000f0015f04       0x7c 
 .bss.__rx_base
                0x00000000f0015f80      0x100 drivers/net/built-in.o
 .bss.__packet  0x00000000f0016080     0x1000 drivers/net/built-in.o
 .bss.tx_tail   0x00000000f0017080        0x4 drivers/net/built-in.o
 .bss.hose_head
                0x00000000f0017084        0x4 drivers/pci/built-in.o
 .bss.indent.7652
                0x00000000f0017088        0x4 drivers/pci/built-in.o
 .bss.serial_devices
                0x00000000f001708c        0x4 drivers/serial/built-in.o
 .bss.serial_current
                0x00000000f0017090        0x4 drivers/serial/built-in.o
 *fill*         0x00000000f0017094        0xc 
 .bss.ehcic     0x00000000f00170a0      0x120 drivers/usb/host/built-in.o
 .bss.callback_list
                0x00000000f00171c0        0x4 env/built-in.o
 .bss.flags_list
                0x00000000f00171c4        0x4 env/built-in.o
 .bss.fs_partition
                0x00000000f00171c8       0x54 fs/built-in.o
 .bss.fs_type   0x00000000f001721c        0x4 fs/built-in.o
 .bss.fs_dev_part
                0x00000000f0017220        0x4 fs/built-in.o
 .bss.fs_dev_desc
                0x00000000f0017224        0x4 fs/built-in.o
 .bss.symlinknest
                0x00000000f0017228        0x4 fs/built-in.o
 .bss.part_info
                0x00000000f001722c        0x4 fs/built-in.o
 .bss.cur_part_info
                0x00000000f0017230       0x54 fs/built-in.o
 .bss.cur_dev   0x00000000f0017284        0x4 fs/built-in.o
 .bss.address_map
                0x00000000f0017288      0x180 lib/built-in.o
 .bss.local.8679
                0x00000000f0017408       0x16 lib/built-in.o
 *fill*         0x00000000f001741e        0x2 
 .bss.arp_tx_packet_buf
                0x00000000f0017420      0x620 net/built-in.o
 .bss.arp_tx_packet
                0x00000000f0017a40        0x4 net/built-in.o
 .bss.net_arp_wait_reply_ip
                0x00000000f0017a44        0x4 net/built-in.o
 .bss.net_hostname
                0x00000000f0017a48       0x20 net/built-in.o
                0x00000000f0017a48                net_hostname
 .bss.net_root_path
                0x00000000f0017a68       0x40 net/built-in.o
                0x00000000f0017a68                net_root_path
 .bss.time_taken_max
                0x00000000f0017aa8        0x4 net/built-in.o
 .bss.net_nis_domain
                0x00000000f0017aac       0x20 net/built-in.o
                0x00000000f0017aac                net_nis_domain
 .bss.index.8115
                0x00000000f0017acc        0x4 net/built-in.o
 .bss.eth_devices
                0x00000000f0017ad0        0x4 net/built-in.o
 .bss.act.9135  0x00000000f0017ad4        0x4 net/built-in.o
 .bss.first_failed.9130
                0x00000000f0017ad8        0x4 net/built-in.o
 .bss.env_changed_id.9136
                0x00000000f0017adc        0x4 net/built-in.o
 .bss.net_restarted
                0x00000000f0017ae0        0x4 net/built-in.o
 .bss.udp_packet_handler
                0x00000000f0017ae4        0x4 net/built-in.o
 .bss.net_ip_id
                0x00000000f0017ae8        0x4 net/built-in.o
 .bss.net_dev_exists
                0x00000000f0017aec        0x4 net/built-in.o
 .bss.time_start
                0x00000000f0017af0        0x8 net/built-in.o
 .bss.net_pkt_buf
                0x00000000f0017af8     0x1e20 net/built-in.o
 .bss.net_try_count
                0x00000000f0019918        0x4 net/built-in.o
 .bss.time_handler
                0x00000000f001991c        0x4 net/built-in.o
 .bss.arp_packet_handler
                0x00000000f0019920        0x4 net/built-in.o
 .bss.time_delta
                0x00000000f0019924        0x4 net/built-in.o
 .bss.nfs_server_mount_port
                0x00000000f0019928        0x4 net/built-in.o
 .bss.nfs_server_ip
                0x00000000f001992c        0x4 net/built-in.o
 .bss.nfs_filename
                0x00000000f0019930        0x4 net/built-in.o
 .bss.nfs_state
                0x00000000f0019934        0x4 net/built-in.o
 .bss.filefh3_length
                0x00000000f0019938        0x4 net/built-in.o
 .bss.dirfh     0x00000000f001993c       0x20 net/built-in.o
 .bss.rpc_id    0x00000000f001995c        0x4 net/built-in.o
 .bss.fs_mounted
                0x00000000f0019960        0x4 net/built-in.o
 .bss.nfs_len   0x00000000f0019964        0x4 net/built-in.o
 .bss.nfs_server_port
                0x00000000f0019968        0x4 net/built-in.o
 .bss.nfs_download_state
                0x00000000f001996c        0x4 net/built-in.o
 .bss.nfs_path  0x00000000f0019970        0x4 net/built-in.o
 .bss.nfs_path_buff
                0x00000000f0019974      0x800 net/built-in.o
 .bss.nfs_timeout_count
                0x00000000f001a174        0x4 net/built-in.o
 .bss.filefh    0x00000000f001a178       0x40 net/built-in.o
 .bss.nfs_our_port
                0x00000000f001a1b8        0x4 net/built-in.o
 .bss.ping_seq_number
                0x00000000f001a1bc        0x2 net/built-in.o
 *fill*         0x00000000f001a1be        0x2 
 .bss.tftp_prev_block
                0x00000000f001a1c0        0x4 net/built-in.o
 .bss.timeout_count
                0x00000000f001a1c4        0x4 net/built-in.o
 .bss.tftp_block_wrap
                0x00000000f001a1c8        0x4 net/built-in.o
 .bss.default_filename
                0x00000000f001a1cc        0xd net/built-in.o
 *fill*         0x00000000f001a1d9        0x3 
 .bss.tftp_remote_port
                0x00000000f001a1dc        0x4 net/built-in.o
 .bss.tftp_cur_block
                0x00000000f001a1e0        0x4 net/built-in.o
 .bss.tftp_remote_ip
                0x00000000f001a1e4        0x4 net/built-in.o
 .bss.tftp_our_port
                0x00000000f001a1e8        0x4 net/built-in.o
 .bss.tftp_state
                0x00000000f001a1ec        0x4 net/built-in.o
 .bss.tftp_filename
                0x00000000f001a1f0       0x80 net/built-in.o
 .bss.tftp_block_wrap_offset
                0x00000000f001a270        0x4 net/built-in.o
 *(COMMON)
 *fill*         0x00000000f001a274        0x4 
 COMMON         0x00000000f001a278      0x310 common/built-in.o
                0x00000000f001a278                console_buffer
                0x00000000f001a380                images
 COMMON         0x00000000f001a588      0x110 drivers/built-in.o
                0x00000000f001a588                sata_dev_desc
 COMMON         0x00000000f001a698     0x14c4 drivers/mtd/built-in.o
                0x00000000f001a698                flash_info
                0x00000000f001badc                mtd_table
 *fill*         0x00000000f001bb5c        0x4 
 COMMON         0x00000000f001bb60    0x30060 fs/built-in.o
                0x00000000f001bb60                ext_fs
                0x00000000f001bbc0                do_fat_read_at_block
                0x00000000f002bbc0                get_dentfromdir_block
                0x00000000f003bbc0                get_contents_vfatname_block
 COMMON         0x00000000f004bbc0      0x420 net/built-in.o
                0x00000000f004bbc0                bootp_ids
                0x00000000f004bbd0                net_rx_packets
                0x00000000f004bbe0                net_boot_file_name
                0x00000000f004bfe0                . = ALIGN (0x4)
                0x00000000f004bfe0                __bss_end = .
                [!provide]                        PROVIDE (end, .)
LOAD arch/powerpc/cpu/mpc85xx/start.o
LOAD arch/powerpc/cpu/mpc85xx/resetvec.o
START GROUP
LOAD arch/powerpc/cpu/built-in.o
LOAD arch/powerpc/cpu/mpc85xx/built-in.o
LOAD arch/powerpc/lib/built-in.o
LOAD board/freescale/common/built-in.o
LOAD board/freescale/p1_p2_rdb_pc/built-in.o
LOAD cmd/built-in.o
LOAD common/built-in.o
LOAD disk/built-in.o
LOAD drivers/built-in.o
LOAD drivers/ddr/fsl/built-in.o
LOAD drivers/dma/built-in.o
LOAD drivers/gpio/built-in.o
LOAD drivers/i2c/built-in.o
LOAD drivers/mtd/built-in.o
LOAD drivers/mtd/nand/built-in.o
LOAD drivers/mtd/onenand/built-in.o
LOAD drivers/mtd/spi/built-in.o
LOAD drivers/net/built-in.o
LOAD drivers/net/phy/built-in.o
LOAD drivers/pci/built-in.o
LOAD drivers/power/built-in.o
LOAD drivers/power/battery/built-in.o
LOAD drivers/power/domain/built-in.o
LOAD drivers/power/fuel_gauge/built-in.o
LOAD drivers/power/mfd/built-in.o
LOAD drivers/power/pmic/built-in.o
LOAD drivers/power/regulator/built-in.o
LOAD drivers/serial/built-in.o
LOAD drivers/spi/built-in.o
LOAD drivers/usb/common/built-in.o
LOAD drivers/usb/dwc3/built-in.o
LOAD drivers/usb/emul/built-in.o
LOAD drivers/usb/eth/built-in.o
LOAD drivers/usb/gadget/built-in.o
LOAD drivers/usb/gadget/udc/built-in.o
LOAD drivers/usb/host/built-in.o
LOAD drivers/usb/musb-new/built-in.o
LOAD drivers/usb/musb/built-in.o
LOAD drivers/usb/phy/built-in.o
LOAD drivers/usb/ulpi/built-in.o
LOAD env/built-in.o
LOAD fs/built-in.o
LOAD lib/built-in.o
LOAD net/built-in.o
LOAD test/built-in.o
LOAD test/dm/built-in.o
END GROUP
LOAD /usr/lib/gcc-cross/powerpc-linux-gnu/5/libgcc.a
OUTPUT(u-boot elf32-powerpc)

.iplt           0x00000000f004bfe0        0x0
 .iplt          0x00000000f004bfe0        0x0 arch/powerpc/cpu/mpc85xx/start.o

.PPC.EMB.apuinfo
                0x0000000000000000       0x18
 .PPC.EMB.apuinfo
                0x0000000000000000       0x18 arch/powerpc/cpu/mpc85xx/start.o

.comment        0x0000000000000000       0x34
 .comment       0x0000000000000000       0x34 arch/powerpc/cpu/built-in.o
                                         0xd4 (size before relaxing)
 .comment       0x0000000000000034      0x247 arch/powerpc/cpu/mpc85xx/built-in.o
 .comment       0x0000000000000034      0x13e arch/powerpc/lib/built-in.o
 .comment       0x0000000000000034       0xd4 board/freescale/p1_p2_rdb_pc/built-in.o
 .comment       0x0000000000000034      0x87d cmd/built-in.o
 .comment       0x0000000000000034      0x6d5 common/built-in.o
 .comment       0x0000000000000034       0x6a disk/built-in.o
 .comment       0x0000000000000034      0x27c drivers/built-in.o
 .comment       0x0000000000000034      0x173 drivers/ddr/fsl/built-in.o
 .comment       0x0000000000000034       0x6a drivers/i2c/built-in.o
 .comment       0x0000000000000034      0x109 drivers/mtd/built-in.o
 .comment       0x0000000000000034      0x1a8 drivers/mtd/nand/built-in.o
 .comment       0x0000000000000034       0xd4 drivers/mtd/spi/built-in.o
 .comment       0x0000000000000034       0xd4 drivers/net/built-in.o
 .comment       0x0000000000000034       0x6a drivers/net/phy/built-in.o
 .comment       0x0000000000000034      0x13e drivers/pci/built-in.o
 .comment       0x0000000000000034       0x9f drivers/serial/built-in.o
 .comment       0x0000000000000034       0x6a drivers/spi/built-in.o
 .comment       0x0000000000000034       0x6a drivers/usb/common/built-in.o
 .comment       0x0000000000000034       0x6a drivers/usb/host/built-in.o
 .comment       0x0000000000000034      0x13e env/built-in.o
 .comment       0x0000000000000034      0x13e fs/built-in.o
 .comment       0x0000000000000034      0x986 lib/built-in.o
 .comment       0x0000000000000034      0x1dd net/built-in.o

.note.GNU-stack
                0x0000000000000000        0x0
 .note.GNU-stack
                0x0000000000000000        0x0 arch/powerpc/cpu/built-in.o
 .note.GNU-stack
                0x0000000000000000        0x0 arch/powerpc/cpu/mpc85xx/built-in.o
 .note.GNU-stack
                0x0000000000000000        0x0 arch/powerpc/lib/built-in.o
 .note.GNU-stack
                0x0000000000000000        0x0 board/freescale/p1_p2_rdb_pc/built-in.o
 .note.GNU-stack
                0x0000000000000000        0x0 cmd/built-in.o
 .note.GNU-stack
                0x0000000000000000        0x0 common/built-in.o
 .note.GNU-stack
                0x0000000000000000        0x0 disk/built-in.o
 .note.GNU-stack
                0x0000000000000000        0x0 drivers/built-in.o
 .note.GNU-stack
                0x0000000000000000        0x0 drivers/ddr/fsl/built-in.o
 .note.GNU-stack
                0x0000000000000000        0x0 drivers/i2c/built-in.o
 .note.GNU-stack
                0x0000000000000000        0x0 drivers/mtd/built-in.o
 .note.GNU-stack
                0x0000000000000000        0x0 drivers/mtd/nand/built-in.o
 .note.GNU-stack
                0x0000000000000000        0x0 drivers/mtd/spi/built-in.o
 .note.GNU-stack
                0x0000000000000000        0x0 drivers/net/built-in.o
 .note.GNU-stack
                0x0000000000000000        0x0 drivers/net/phy/built-in.o
 .note.GNU-stack
                0x0000000000000000        0x0 drivers/pci/built-in.o
 .note.GNU-stack
                0x0000000000000000        0x0 drivers/serial/built-in.o
 .note.GNU-stack
                0x0000000000000000        0x0 drivers/spi/built-in.o
 .note.GNU-stack
                0x0000000000000000        0x0 drivers/usb/common/built-in.o
 .note.GNU-stack
                0x0000000000000000        0x0 drivers/usb/host/built-in.o
 .note.GNU-stack
                0x0000000000000000        0x0 env/built-in.o
 .note.GNU-stack
                0x0000000000000000        0x0 fs/built-in.o
 .note.GNU-stack
                0x0000000000000000        0x0 lib/built-in.o
 .note.GNU-stack
                0x0000000000000000        0x0 net/built-in.o
 .note.GNU-stack
                0x0000000000000000        0x0 /usr/lib/gcc-cross/powerpc-linux-gnu/5/libgcc.a(_lshrdi3.o)
 .note.GNU-stack
                0x0000000000000000        0x0 /usr/lib/gcc-cross/powerpc-linux-gnu/5/libgcc.a(_ashldi3.o)
 .note.GNU-stack
                0x0000000000000000        0x0 /usr/lib/gcc-cross/powerpc-linux-gnu/5/libgcc.a(_ashrdi3.o)
 .note.GNU-stack
                0x0000000000000000        0x0 /usr/lib/gcc-cross/powerpc-linux-gnu/5/libgcc.a(crtresxgpr.o)

.gnu.attributes
                0x0000000000000000       0x12
 .gnu.attributes
                0x0000000000000000       0x10 cmd/built-in.o
 .gnu.attributes
                0x0000000000000010       0x10 common/built-in.o
 .gnu.attributes
                0x0000000000000020       0x12 lib/built-in.o
 .gnu.attributes
                0x0000000000000032       0x10 net/built-in.o

.debug_line     0x0000000000000000    0x2fa0e
 .debug_line    0x0000000000000000      0x2e0 arch/powerpc/cpu/mpc85xx/start.o
 .debug_line    0x00000000000002e0       0x54 arch/powerpc/cpu/mpc85xx/resetvec.o
 .debug_line    0x0000000000000334      0xa2b arch/powerpc/cpu/built-in.o
 .debug_line    0x0000000000000d5f     0x1bd7 arch/powerpc/cpu/mpc85xx/built-in.o
 .debug_line    0x0000000000002936      0xa4b arch/powerpc/lib/built-in.o
 .debug_line    0x0000000000003381      0x795 board/freescale/p1_p2_rdb_pc/built-in.o
 .debug_line    0x0000000000003b16     0x716a cmd/built-in.o
 .debug_line    0x000000000000ac80     0x8454 common/built-in.o
 .debug_line    0x00000000000130d4      0x7b1 disk/built-in.o
 .debug_line    0x0000000000013885     0x2c31 drivers/built-in.o
 .debug_line    0x00000000000164b6     0x1914 drivers/ddr/fsl/built-in.o
 .debug_line    0x0000000000017dca      0x9a7 drivers/i2c/built-in.o
 .debug_line    0x0000000000018771     0x1eab drivers/mtd/built-in.o
 .debug_line    0x000000000001a61c     0x31e9 drivers/mtd/nand/built-in.o
 .debug_line    0x000000000001d805      0x8b2 drivers/mtd/spi/built-in.o
 .debug_line    0x000000000001e0b7     0x243c drivers/net/built-in.o
 .debug_line    0x00000000000204f3      0xd1e drivers/net/phy/built-in.o
 .debug_line    0x0000000000021211     0x1550 drivers/pci/built-in.o
 .debug_line    0x0000000000022761      0x8a5 drivers/serial/built-in.o
 .debug_line    0x0000000000023006      0x49b drivers/spi/built-in.o
 .debug_line    0x00000000000234a1      0x4d5 drivers/usb/common/built-in.o
 .debug_line    0x0000000000023976      0xf4c drivers/usb/host/built-in.o
 .debug_line    0x00000000000248c2      0xd0d env/built-in.o
 .debug_line    0x00000000000255cf     0x1cfe fs/built-in.o
 .debug_line    0x00000000000272cd     0x6832 lib/built-in.o
 .debug_line    0x000000000002daff     0x1f0f net/built-in.o

.debug_info     0x0000000000000000   0x139dfa
 .debug_info    0x0000000000000000       0x69 arch/powerpc/cpu/mpc85xx/start.o
 .debug_info    0x0000000000000069       0x70 arch/powerpc/cpu/mpc85xx/resetvec.o
 .debug_info    0x00000000000000d9     0x4c76 arch/powerpc/cpu/built-in.o
 .debug_info    0x0000000000004d4f    0x11030 arch/powerpc/cpu/mpc85xx/built-in.o
 .debug_info    0x0000000000015d7f     0x4194 arch/powerpc/lib/built-in.o
 .debug_info    0x0000000000019f13     0x3a4e board/freescale/p1_p2_rdb_pc/built-in.o
 .debug_info    0x000000000001d961    0x320ea cmd/built-in.o
 .debug_info    0x000000000004fa4b    0x38577 common/built-in.o
 .debug_info    0x0000000000087fc2     0x31d6 disk/built-in.o
 .debug_info    0x000000000008b198    0x144f1 drivers/built-in.o
 .debug_info    0x000000000009f689     0xbb03 drivers/ddr/fsl/built-in.o
 .debug_info    0x00000000000ab18c     0x43ad drivers/i2c/built-in.o
 .debug_info    0x00000000000af539     0xb857 drivers/mtd/built-in.o
 .debug_info    0x00000000000bad90    0x193c3 drivers/mtd/nand/built-in.o
 .debug_info    0x00000000000d4153     0x4d76 drivers/mtd/spi/built-in.o
 .debug_info    0x00000000000d8ec9     0xcf1d drivers/net/built-in.o
 .debug_info    0x00000000000e5de6     0x62c7 drivers/net/phy/built-in.o
 .debug_info    0x00000000000ec0ad     0x9d84 drivers/pci/built-in.o
 .debug_info    0x00000000000f5e31     0x4101 drivers/serial/built-in.o
 .debug_info    0x00000000000f9f32     0x16f8 drivers/spi/built-in.o
 .debug_info    0x00000000000fb62a     0x142a drivers/usb/common/built-in.o
 .debug_info    0x00000000000fca54     0x68c9 drivers/usb/host/built-in.o
 .debug_info    0x000000000010331d     0x57f0 env/built-in.o
 .debug_info    0x0000000000108b0d     0xbab7 fs/built-in.o
 .debug_info    0x00000000001145c4    0x19994 lib/built-in.o
 .debug_info    0x000000000012df58     0xbea2 net/built-in.o

.debug_abbrev   0x0000000000000000    0x2a704
 .debug_abbrev  0x0000000000000000       0x12 arch/powerpc/cpu/mpc85xx/start.o
 .debug_abbrev  0x0000000000000012       0x14 arch/powerpc/cpu/mpc85xx/resetvec.o
 .debug_abbrev  0x0000000000000026      0xbf5 arch/powerpc/cpu/built-in.o
 .debug_abbrev  0x0000000000000c1b     0x237d arch/powerpc/cpu/mpc85xx/built-in.o
 .debug_abbrev  0x0000000000002f98      0xd0b arch/powerpc/lib/built-in.o
 .debug_abbrev  0x0000000000003ca3      0x84d board/freescale/p1_p2_rdb_pc/built-in.o
 .debug_abbrev  0x00000000000044f0     0x752b cmd/built-in.o
 .debug_abbrev  0x000000000000ba1b     0x718f common/built-in.o
 .debug_abbrev  0x0000000000012baa      0x8b3 disk/built-in.o
 .debug_abbrev  0x000000000001345d     0x28eb drivers/built-in.o
 .debug_abbrev  0x0000000000015d48     0x1756 drivers/ddr/fsl/built-in.o
 .debug_abbrev  0x000000000001749e      0x816 drivers/i2c/built-in.o
 .debug_abbrev  0x0000000000017cb4     0x14b4 drivers/mtd/built-in.o
 .debug_abbrev  0x0000000000019168     0x1e6a drivers/mtd/nand/built-in.o
 .debug_abbrev  0x000000000001afd2      0xade drivers/mtd/spi/built-in.o
 .debug_abbrev  0x000000000001bab0      0xebf drivers/net/built-in.o
 .debug_abbrev  0x000000000001c96f      0x847 drivers/net/phy/built-in.o
 .debug_abbrev  0x000000000001d1b6     0x141c drivers/pci/built-in.o
 .debug_abbrev  0x000000000001e5d2      0xa7a drivers/serial/built-in.o
 .debug_abbrev  0x000000000001f04c      0x53f drivers/spi/built-in.o
 .debug_abbrev  0x000000000001f58b      0x43e drivers/usb/common/built-in.o
 .debug_abbrev  0x000000000001f9c9      0x96c drivers/usb/host/built-in.o
 .debug_abbrev  0x0000000000020335     0x1143 env/built-in.o
 .debug_abbrev  0x0000000000021478     0x1612 fs/built-in.o
 .debug_abbrev  0x0000000000022a8a     0x5c70 lib/built-in.o
 .debug_abbrev  0x00000000000286fa     0x200a net/built-in.o

.debug_aranges  0x0000000000000000     0x5218
 .debug_aranges
                0x0000000000000000       0x28 arch/powerpc/cpu/mpc85xx/start.o
 .debug_aranges
                0x0000000000000028       0x20 arch/powerpc/cpu/mpc85xx/resetvec.o
 .debug_aranges
                0x0000000000000048      0x110 arch/powerpc/cpu/built-in.o
 .debug_aranges
                0x0000000000000158      0x358 arch/powerpc/cpu/mpc85xx/built-in.o
 .debug_aranges
                0x00000000000004b0      0x1a0 arch/powerpc/lib/built-in.o
 .debug_aranges
                0x0000000000000650       0xd8 board/freescale/p1_p2_rdb_pc/built-in.o
 .debug_aranges
                0x0000000000000728      0xa30 cmd/built-in.o
 .debug_aranges
                0x0000000000001158     0x1070 common/built-in.o
 .debug_aranges
                0x00000000000021c8       0xc8 disk/built-in.o
 .debug_aranges
                0x0000000000002290      0x4b0 drivers/built-in.o
 .debug_aranges
                0x0000000000002740      0x1f8 drivers/ddr/fsl/built-in.o
 .debug_aranges
                0x0000000000002938       0xe0 drivers/i2c/built-in.o
 .debug_aranges
                0x0000000000002a18      0x390 drivers/mtd/built-in.o
 .debug_aranges
                0x0000000000002da8      0x430 drivers/mtd/nand/built-in.o
 .debug_aranges
                0x00000000000031d8       0xd0 drivers/mtd/spi/built-in.o
 .debug_aranges
                0x00000000000032a8      0x208 drivers/net/built-in.o
 .debug_aranges
                0x00000000000034b0      0x170 drivers/net/phy/built-in.o
 .debug_aranges
                0x0000000000003620      0x2d8 drivers/pci/built-in.o
 .debug_aranges
                0x00000000000038f8      0x1a8 drivers/serial/built-in.o
 .debug_aranges
                0x0000000000003aa0       0x88 drivers/spi/built-in.o
 .debug_aranges
                0x0000000000003b28       0x88 drivers/usb/common/built-in.o
 .debug_aranges
                0x0000000000003bb0      0x100 drivers/usb/host/built-in.o
 .debug_aranges
                0x0000000000003cb0      0x1a0 env/built-in.o
 .debug_aranges
                0x0000000000003e50      0x2d8 fs/built-in.o
 .debug_aranges
                0x0000000000004128      0xd10 lib/built-in.o
 .debug_aranges
                0x0000000000004e38      0x3e0 net/built-in.o

.debug_ranges   0x0000000000000000     0xb770
 .debug_ranges  0x0000000000000000       0x20 arch/powerpc/cpu/mpc85xx/start.o
 .debug_ranges  0x0000000000000020      0x260 arch/powerpc/cpu/built-in.o
 .debug_ranges  0x0000000000000280      0x5e0 arch/powerpc/cpu/mpc85xx/built-in.o
 .debug_ranges  0x0000000000000860      0x110 arch/powerpc/lib/built-in.o
 .debug_ranges  0x0000000000000970       0x88 board/freescale/p1_p2_rdb_pc/built-in.o
 .debug_ranges  0x00000000000009f8     0x1760 cmd/built-in.o
 .debug_ranges  0x0000000000002158     0x1f60 common/built-in.o
 .debug_ranges  0x00000000000040b8      0x228 disk/built-in.o
 .debug_ranges  0x00000000000042e0      0xb08 drivers/built-in.o
 .debug_ranges  0x0000000000004de8      0x5b8 drivers/ddr/fsl/built-in.o
 .debug_ranges  0x00000000000053a0      0x458 drivers/i2c/built-in.o
 .debug_ranges  0x00000000000057f8      0x868 drivers/mtd/built-in.o
 .debug_ranges  0x0000000000006060      0xfa8 drivers/mtd/nand/built-in.o
 .debug_ranges  0x0000000000007008      0x1b8 drivers/mtd/spi/built-in.o
 .debug_ranges  0x00000000000071c0      0x980 drivers/net/built-in.o
 .debug_ranges  0x0000000000007b40      0x730 drivers/net/phy/built-in.o
 .debug_ranges  0x0000000000008270      0x3b8 drivers/pci/built-in.o
 .debug_ranges  0x0000000000008628      0x288 drivers/serial/built-in.o
 .debug_ranges  0x00000000000088b0       0xd8 drivers/spi/built-in.o
 .debug_ranges  0x0000000000008988      0x100 drivers/usb/common/built-in.o
 .debug_ranges  0x0000000000008a88      0x338 drivers/usb/host/built-in.o
 .debug_ranges  0x0000000000008dc0      0x250 env/built-in.o
 .debug_ranges  0x0000000000009010      0x6f8 fs/built-in.o
 .debug_ranges  0x0000000000009708     0x1678 lib/built-in.o
 .debug_ranges  0x000000000000ad80      0x9f0 net/built-in.o

.debug_frame    0x0000000000000000    0x14bec
 .debug_frame   0x0000000000000000      0x3a8 arch/powerpc/cpu/built-in.o
 .debug_frame   0x00000000000003a8      0xae8 arch/powerpc/cpu/mpc85xx/built-in.o
 .debug_frame   0x0000000000000e90      0x2b4 arch/powerpc/lib/built-in.o
 .debug_frame   0x0000000000001144      0x218 board/freescale/p1_p2_rdb_pc/built-in.o
 .debug_frame   0x000000000000135c     0x2824 cmd/built-in.o
 .debug_frame   0x0000000000003b80     0x4a20 common/built-in.o
 .debug_frame   0x00000000000085a0      0x3a8 disk/built-in.o
 .debug_frame   0x0000000000008948     0x1378 drivers/built-in.o
 .debug_frame   0x0000000000009cc0      0x6cc drivers/ddr/fsl/built-in.o
 .debug_frame   0x000000000000a38c      0x404 drivers/i2c/built-in.o
 .debug_frame   0x000000000000a790      0xfb8 drivers/mtd/built-in.o
 .debug_frame   0x000000000000b748     0x1630 drivers/mtd/nand/built-in.o
 .debug_frame   0x000000000000cd78      0x298 drivers/mtd/spi/built-in.o
 .debug_frame   0x000000000000d010      0x888 drivers/net/built-in.o
 .debug_frame   0x000000000000d898      0x69c drivers/net/phy/built-in.o
 .debug_frame   0x000000000000df34      0xbd8 drivers/pci/built-in.o
 .debug_frame   0x000000000000eb0c      0x5ac drivers/serial/built-in.o
 .debug_frame   0x000000000000f0b8      0x178 drivers/spi/built-in.o
 .debug_frame   0x000000000000f230      0x158 drivers/usb/common/built-in.o
 .debug_frame   0x000000000000f388      0x43c drivers/usb/host/built-in.o
 .debug_frame   0x000000000000f7c4      0x5ec env/built-in.o
 .debug_frame   0x000000000000fdb0      0xd4c fs/built-in.o
 .debug_frame   0x0000000000010afc     0x304c lib/built-in.o
 .debug_frame   0x0000000000013b48     0x10a4 net/built-in.o

.debug_str      0x0000000000000000    0x1c3d0
 .debug_str     0x0000000000000000     0x1a62 arch/powerpc/cpu/built-in.o
                                       0x302d (size before relaxing)
 .debug_str     0x0000000000001a62     0x1494 arch/powerpc/cpu/mpc85xx/built-in.o
                                       0xa5f2 (size before relaxing)
 .debug_str     0x0000000000002ef6      0xf44 arch/powerpc/lib/built-in.o
                                       0x43d7 (size before relaxing)
 .debug_str     0x0000000000003e3a      0xe46 board/freescale/p1_p2_rdb_pc/built-in.o
                                       0x3cfd (size before relaxing)
 .debug_str     0x0000000000004c80     0x5154 cmd/built-in.o
                                      0x23a03 (size before relaxing)
 .debug_str     0x0000000000009dd4     0x485c common/built-in.o
                                      0x24c4e (size before relaxing)
 .debug_str     0x000000000000e630      0x3e0 disk/built-in.o
                                       0x1dfc (size before relaxing)
 .debug_str     0x000000000000ea10     0x2aec drivers/built-in.o
                                       0xd1f3 (size before relaxing)
 .debug_str     0x00000000000114fc      0xf34 drivers/ddr/fsl/built-in.o
                                       0x7ff9 (size before relaxing)
 .debug_str     0x0000000000012430      0x211 drivers/i2c/built-in.o
                                       0x1d96 (size before relaxing)
 .debug_str     0x0000000000012641      0xd1c drivers/mtd/built-in.o
                                       0x4e3d (size before relaxing)
 .debug_str     0x000000000001335d     0x1494 drivers/mtd/nand/built-in.o
                                       0xb914 (size before relaxing)
 .debug_str     0x00000000000147f1      0x38d drivers/mtd/spi/built-in.o
                                       0x35cf (size before relaxing)
 .debug_str     0x0000000000014b7e     0x147d drivers/net/built-in.o
                                       0x47c6 (size before relaxing)
 .debug_str     0x0000000000015ffb      0x453 drivers/net/phy/built-in.o
                                       0x1de0 (size before relaxing)
 .debug_str     0x000000000001644e      0x98c drivers/pci/built-in.o
                                       0x56c2 (size before relaxing)
 .debug_str     0x0000000000016dda      0x483 drivers/serial/built-in.o
                                       0x2cc0 (size before relaxing)
 .debug_str     0x000000000001725d      0x175 drivers/spi/built-in.o
                                        0xbc6 (size before relaxing)
 .debug_str     0x00000000000173d2      0x27b drivers/usb/common/built-in.o
                                        0xfcd (size before relaxing)
 .debug_str     0x000000000001764d      0x73e drivers/usb/host/built-in.o
                                       0x2ede (size before relaxing)
 .debug_str     0x0000000000017d8b      0x6df env/built-in.o
                                       0x4efc (size before relaxing)
 .debug_str     0x000000000001846a     0x1208 fs/built-in.o
                                       0x64ce (size before relaxing)
 .debug_str     0x0000000000019672     0x1a11 lib/built-in.o
                                      0x10c1a (size before relaxing)
 .debug_str     0x000000000001b083     0x134d net/built-in.o
                                       0x9e5c (size before relaxing)

.debug_loc      0x0000000000000000    0x84559
 .debug_loc     0x0000000000000000     0x147d arch/powerpc/cpu/built-in.o
 .debug_loc     0x000000000000147d     0x24e0 arch/powerpc/cpu/mpc85xx/built-in.o
 .debug_loc     0x000000000000395d      0x945 arch/powerpc/lib/built-in.o
 .debug_loc     0x00000000000042a2      0x52e board/freescale/p1_p2_rdb_pc/built-in.o
 .debug_loc     0x00000000000047d0    0x121b8 cmd/built-in.o
 .debug_loc     0x0000000000016988    0x15ec6 common/built-in.o
 .debug_loc     0x000000000002c84e     0x13b4 disk/built-in.o
 .debug_loc     0x000000000002dc02     0x6e30 drivers/built-in.o
 .debug_loc     0x0000000000034a32     0x3eb3 drivers/ddr/fsl/built-in.o
 .debug_loc     0x00000000000388e5     0x24cc drivers/i2c/built-in.o
 .debug_loc     0x000000000003adb1     0x6920 drivers/mtd/built-in.o
 .debug_loc     0x00000000000416d1     0xad6b drivers/mtd/nand/built-in.o
 .debug_loc     0x000000000004c43c      0xf03 drivers/mtd/spi/built-in.o
 .debug_loc     0x000000000004d33f     0x6c1b drivers/net/built-in.o
 .debug_loc     0x0000000000053f5a     0x4387 drivers/net/phy/built-in.o
 .debug_loc     0x00000000000582e1     0x3a7d drivers/pci/built-in.o
 .debug_loc     0x000000000005bd5e      0xafa drivers/serial/built-in.o
 .debug_loc     0x000000000005c858     0x10e7 drivers/spi/built-in.o
 .debug_loc     0x000000000005d93f      0x712 drivers/usb/common/built-in.o
 .debug_loc     0x000000000005e051     0x2be5 drivers/usb/host/built-in.o
 .debug_loc     0x0000000000060c36     0x15bc env/built-in.o
 .debug_loc     0x00000000000621f2     0x4ea3 fs/built-in.o
 .debug_loc     0x0000000000067095    0x18db8 lib/built-in.o
 .debug_loc     0x000000000007fe4d     0x470c net/built-in.o
